ccopy_reg
_reconstructor
p0
(cReachability
ReachabilityMapParams
p1
c__builtin__
object
p2
Ntp3
Rp4
(dp5
S'free_joint_index'
p6
NsS'b'
p7
I1
sS'zmax'
p8
F0.4
sS'ymax'
p9
F0.55
sS'g'
p10
I0
sS'free_joint_val'
p11
F0.0
sS'zmin'
p12
F-0.4
sS'm'
p13
I12
sS'n'
p14
I8
sS'indices'
p15
(dp16
(S'0.15'
p17
S','
p18
S'0.4'
p19
g18
S'-0.15'
p20
tp21
I482
s(S'0.05'
p22
g18
S'0.35'
p23
g18
S'-0.25'
p24
tp25
I174
s(S'0.3'
p26
g18
S'0.25'
p27
g18
S'0.15'
p28
tp29
I852
s(S'0.2'
p30
g18
S'0.1'
p31
g18
S'0.3'
p32
tp33
I563
s(S'0.15'
p34
g18
S'0.5'
p35
g18
S'-0.15'
p36
tp37
I505
s(S'0.15'
p38
g18
S'0.15'
p39
g18
S'-0.2'
p40
tp41
I407
s(S'0.1'
p42
g18
S'0.45'
p43
g18
S'-0.2'
p44
tp45
I332
s(S'0.0'
p46
g18
S'0.5'
p47
g18
S'-0.1'
p48
tp49
I96
s(S'0.2'
p50
g18
S'0.1'
p51
g18
S'-0.2'
p52
tp53
I553
s(S'0.2'
p54
g18
S'0.5'
p55
g18
S'-0.15'
p56
tp57
I660
s(S'0.1'
p58
g18
S'0.45'
p59
g18
S'0.3'
p60
tp61
I342
s(S'0.0'
p62
g18
S'0.35'
p63
g18
S'-0.2'
p64
tp65
I53
s(S'0.2'
p66
g18
S'0.3'
p67
g18
S'0.35'
p68
tp69
I622
s(S'0.15'
p70
g18
S'0.35'
p71
g18
S'-0.2'
p72
tp73
I467
s(S'0.3'
p74
g18
S'0.25'
p75
g18
S'-0.2'
p76
tp77
I845
s(S'0.15'
p78
g18
S'0.1'
p79
g18
S'0.05'
p80
tp81
I397
s(S'0.1'
p82
g18
S'0.2'
p83
g18
S'0.2'
p84
tp85
I268
s(S'0.1'
p86
g18
S'0.15'
p87
g18
S'0.15'
p88
tp89
I253
s(S'0.3'
p90
g18
S'0.45'
p91
g18
S'0.2'
p92
tp93
I891
s(S'0.25'
p94
g18
S'0.4'
p95
g18
S'0.2'
p96
tp97
I779
s(S'0.15'
p98
g18
S'0.3'
p99
g18
S'0.2'
p100
tp101
I460
s(S'0.2'
p102
g18
S'0.4'
p103
g18
S'-0.1'
p104
tp105
I639
s(S'0.05'
p106
g18
S'0.05'
p107
g18
S'0.4'
p108
tp109
I120
s(S'0.05'
p110
g18
S'0.25'
p111
g18
S'0.35'
p112
tp113
I156
s(S'0.2'
p114
g18
S'0.15'
p115
g18
S'0.0'
p116
tp117
I571
s(S'0.1'
p118
g18
S'0.6'
p119
g18
S'0.1'
p120
tp121
I366
s(S'-0.0'
p122
g18
S'0.3'
p123
g18
S'0.2'
p124
tp125
I46
s(S'0.05'
p126
g18
S'0.25'
p127
g18
S'0.25'
p128
tp129
I154
s(S'0.2'
p130
g18
S'0.25'
p131
g18
S'-0.1'
p132
tp133
I599
s(S'0.1'
p134
g18
S'0.3'
p135
g18
S'-0.05'
p136
tp137
I292
s(S'0.15'
p138
g18
S'0.3'
p139
g18
S'0.15'
p140
tp141
I459
s(S'0.05'
p142
g18
S'0.3'
p143
g18
S'-0.0'
p144
tp145
I165
s(S'0.25'
p146
g18
S'0.3'
p147
g18
S'-0.15'
p148
tp149
I749
s(S'0.35'
p150
g18
S'0.35'
p151
g18
S'0.2'
p152
tp153
I945
s(S'0.2'
p154
g18
S'0.2'
p155
g18
S'-0.05'
p156
tp157
I585
s(S'0.2'
p158
g18
S'0.3'
p159
g18
S'-0.1'
p160
tp161
I613
s(S'0.25'
p162
g18
S'0.45'
p163
g18
S'-0.05'
p164
tp165
I784
s(S'0.2'
p166
g18
S'0.5'
p167
g18
S'0.05'
p168
tp169
I664
s(S'-0.0'
p170
g18
S'0.25'
p171
g18
S'-0.35'
p172
tp173
I25
s(S'0.1'
p174
g18
S'0.35'
p175
g18
S'0.2'
p176
tp177
I312
s(S'0.4'
p178
g18
S'0.15'
p179
g18
S'0.05'
p180
tp181
I952
s(S'-0.0'
p182
g18
S'0.4'
p183
g18
S'0.35'
p184
tp185
I79
s(S'-0.0'
p186
g18
S'0.4'
p187
g18
S'0.4'
p188
tp189
I80
s(S'0.2'
p190
g18
S'0.05'
p191
g18
S'-0.25'
p192
tp193
I539
s(S'0.0'
p194
g18
S'0.45'
p195
g18
S'0.35'
p196
tp197
I93
s(S'0.2'
p198
g18
S'0.25'
p199
g18
S'0.3'
p200
tp201
I607
s(S'0.15'
p202
g18
S'0.1'
p203
g18
S'0.2'
p204
tp205
I400
s(S'-0.0'
p206
g18
S'0.25'
p207
g18
S'-0.15'
p208
tp209
I29
s(S'0.05'
p210
g18
S'0.25'
p211
g18
S'-0.15'
p212
tp213
I149
s(S'-0.0'
p214
g18
S'0.6'
p215
g18
S'0.15'
p216
tp217
I118
s(S'0.1'
p218
g18
S'0.5'
p219
g18
S'-0.1'
p220
tp221
I346
s(S'0.15'
p222
g18
S'0.5'
p223
g18
S'-0.2'
p224
tp225
I504
s(S'0.25'
p226
g18
S'0.5'
p227
g18
S'0.05'
p228
tp229
I794
s(S'0.0'
p230
g18
S'0.3'
p231
g18
S'-0.15'
p232
tp233
I42
s(S'0.0'
p234
g18
S'0.45'
p235
g18
S'0.2'
p236
tp237
I90
s(S'0.1'
p238
g18
S'0.05'
p239
g18
S'0.4'
p240
tp241
I243
s(S'0.15'
p242
g18
S'0.15'
p243
g18
S'0.25'
p244
tp245
I416
s(S'0.05'
p246
g18
S'0.5'
p247
g18
S'0.05'
p248
tp249
I221
s(S'0.0'
p250
g18
S'0.25'
p251
g18
S'0.45'
p252
tp253
I38
s(S'0.15'
p254
g18
S'0.2'
p255
g18
S'0.25'
p256
tp257
I431
s(S'0.0'
p258
g18
S'0.6'
p259
g18
S'0.1'
p260
tp261
I117
s(S'-0.0'
p262
g18
S'0.25'
p263
g18
S'-0.2'
p264
tp265
I28
s(S'0.05'
p266
g18
S'0.25'
p267
g18
S'-0.3'
p268
tp269
I146
s(S'0.2'
p270
g18
S'0.1'
p271
g18
S'0.1'
p272
tp273
I559
s(S'0.1'
p274
g18
S'0.45'
p275
g18
S'0.05'
p276
tp277
I337
s(S'0.25'
p278
g18
S'0.1'
p279
g18
S'-0.05'
p280
tp281
I699
s(S'0.15'
p282
g18
S'0.0'
p283
g18
S'0.1'
p284
tp285
I372
s(S'0.1'
p286
g18
S'0.45'
p287
g18
S'0.1'
p288
tp289
I338
s(S'0.05'
p290
g18
S'0.35'
p291
g18
S'0.25'
p292
tp293
I184
s(S'0.15'
p294
g18
S'0.25'
p295
g18
S'-0.2'
p296
tp297
I437
s(S'0.4'
p298
g18
S'0.2'
p299
g18
S'0.05'
p300
tp301
I956
s(S'0.05'
p302
g18
S'0.2'
p303
g18
S'-0.15'
p304
tp305
I136
s(S'0.2'
p306
g18
S'0.2'
p307
g18
S'0.25'
p308
tp309
I591
s(S'0.15'
p310
g18
S'0.1'
p311
g18
S'0.15'
p312
tp313
I399
s(S'0.2'
p314
g18
S'0.0'
p315
g18
S'0.1'
p316
tp317
I534
s(S'0.1'
p318
g18
S'0.2'
p319
g18
S'-0.15'
p320
tp321
I262
s(S'0.2'
p322
g18
S'0.45'
p323
g18
S'-0.05'
p324
tp325
I652
s(S'0.3'
p326
g18
S'0.05'
p327
g18
S'-0.1'
p328
tp329
I804
s(S'0.15'
p330
g18
S'0.4'
p331
g18
S'0.15'
p332
tp333
I488
s(S'0.15'
p334
g18
S'0.3'
p335
g18
S'-0.2'
p336
tp337
I452
s(S'0.1'
p338
g18
S'0.3'
p339
g18
S'-0.1'
p340
tp341
I291
s(S'0.25'
p342
g18
S'0.25'
p343
g18
S'0.25'
p344
tp345
I744
s(S'0.1'
p346
g18
S'0.1'
p347
g18
S'0.35'
p348
tp349
I248
s(S'0.25'
p350
g18
S'0.15'
p351
g18
S'0.1'
p352
tp353
I715
s(S'-0.0'
p354
g18
S'0.3'
p355
g18
S'-0.3'
p356
tp357
I39
s(S'-0.0'
p358
g18
S'0.4'
p359
g18
S'-0.2'
p360
tp361
I68
s(S'0.3'
p362
g18
S'0.15'
p363
g18
S'-0.05'
p364
tp365
I826
s(S'0.05'
p366
g18
S'0.3'
p367
g18
S'-0.2'
p368
tp369
I161
s(S'0.2'
p370
g18
S'0.2'
p371
g18
S'0.0'
p372
tp373
I586
s(S'0.05'
p374
g18
S'0.25'
p375
g18
S'-0.25'
p376
tp377
I147
s(S'0.25'
p378
g18
S'0.2'
p379
g18
S'-0.1'
p380
tp381
I724
s(S'0.05'
p382
g18
S'0.2'
p383
g18
S'-0.25'
p384
tp385
I134
s(S'0.3'
p386
g18
S'0.35'
p387
g18
S'0.1'
p388
tp389
I872
s(S'0.35'
p390
g18
S'0.4'
p391
g18
S'0.15'
p392
tp393
I950
s(S'0.3'
p394
g18
S'0.2'
p395
g18
S'0.25'
p396
tp397
I843
s(S'0.1'
p398
g18
S'0.35'
p399
g18
S'0.0'
p400
tp401
I308
s(S'0.1'
p402
g18
S'0.1'
p403
g18
S'0.3'
p404
tp405
I247
s(S'0.25'
p406
g18
S'0.3'
p407
g18
S'0.15'
p408
tp409
I755
s(S'0.05'
p410
g18
S'0.4'
p411
g18
S'0.4'
p412
tp413
I202
s(S'0.1'
p414
g18
S'0.3'
p415
g18
S'-0.3'
p416
tp417
I287
s(S'0.05'
p418
g18
S'0.3'
p419
g18
S'-0.25'
p420
tp421
I160
s(S'0.15'
p422
g18
S'0.45'
p423
g18
S'-0.05'
p424
tp425
I496
s(S'0.1'
p426
g18
S'0.5'
p427
g18
S'0.0'
p428
tp429
I348
s(S'0.15'
p430
g18
S'0.45'
p431
g18
S'-0.15'
p432
tp433
I494
s(S'0.1'
p434
g18
S'0.25'
p435
g18
S'-0.1'
p436
tp437
I277
s(S'0.0'
p438
g18
S'0.4'
p439
g18
S'-0.25'
p440
tp441
I67
s(S'0.2'
p442
g18
S'0.25'
p443
g18
S'0.15'
p444
tp445
I604
s(S'0.2'
p446
g18
S'0.05'
p447
g18
S'0.25'
p448
tp449
I549
s(S'0.15'
p450
g18
S'0.4'
p451
g18
S'0.1'
p452
tp453
I487
s(S'-0.0'
p454
g18
S'0.15'
p455
g18
S'0.2'
p456
tp457
I8
s(S'0.2'
p458
g18
S'0.55'
p459
g18
S'0.15'
p460
tp461
I673
s(S'0.0'
p462
g18
S'0.45'
p463
g18
S'0.0'
p464
tp465
I86
s(S'0.3'
p466
g18
S'0.2'
p467
g18
S'-0.05'
p468
tp469
I837
s(S'0.2'
p470
g18
S'0.3'
p471
g18
S'0.15'
p472
tp473
I618
s(S'0.2'
p474
g18
S'0.4'
p475
g18
S'0.3'
p476
tp477
I647
s(S'0.15'
p478
g18
S'0.3'
p479
g18
S'-0.05'
p480
tp481
I455
s(S'-0.0'
p482
g18
S'0.1'
p483
g18
S'0.2'
p484
tp485
I2
s(S'0.0'
p486
g18
S'0.55'
p487
g18
S'0.1'
p488
tp489
I110
s(S'0.2'
p490
g18
S'0.25'
p491
g18
S'0.05'
p492
tp493
I602
s(S'0.15'
p494
g18
S'0.15'
p495
g18
S'-0.25'
p496
tp497
I406
s(S'-0.0'
p498
g18
S'0.2'
p499
g18
S'-0.2'
p500
tp501
I16
s(S'-0.0'
p502
g18
S'0.35'
p503
g18
S'0.15'
p504
tp505
I60
s(S'0.0'
p506
g18
S'0.3'
p507
g18
S'0.4'
p508
tp509
I50
s(S'0.25'
p510
g18
S'0.25'
p511
g18
S'0.3'
p512
tp513
I745
s(S'0.05'
p514
g18
S'0.45'
p515
g18
S'0.15'
p516
tp517
I211
s(S'0.2'
p518
g18
S'0.35'
p519
g18
S'0.05'
p520
tp521
I629
s(S'0.2'
p522
g18
S'0.4'
p523
g18
S'0.35'
p524
tp525
I648
s(S'0.1'
p526
g18
S'0.1'
p527
g18
S'0.4'
p528
tp529
I249
s(S'0.2'
p530
g18
S'0.15'
p531
g18
S'0.35'
p532
tp533
I578
s(S'0.15'
p534
g18
S'0.0'
p535
g18
S'0.3'
p536
tp537
I376
s(S'0.2'
p538
g18
S'0.0'
p539
g18
S'-0.05'
p540
tp541
I531
s(S'-0.0'
p542
g18
S'0.05'
p543
g18
S'0.4'
p544
tp545
I1
s(S'0.2'
p546
g18
S'0.0'
p547
g18
S'-0.2'
p548
tp549
I528
s(S'0.25'
p550
g18
S'0.5'
p551
g18
S'0.0'
p552
tp553
I793
s(S'0.25'
p554
g18
S'0.15'
p555
g18
S'-0.25'
p556
tp557
I708
s(S'0.15'
p558
g18
S'-0.0'
p559
g18
S'-0.15'
p560
tp561
I367
s(S'0.1'
p562
g18
S'0.35'
p563
g18
S'0.15'
p564
tp565
I311
s(S'0.15'
p566
g18
S'0.25'
p567
g18
S'0.1'
p568
tp569
I443
s(S'0.1'
p570
g18
S'0.2'
p571
g18
S'-0.05'
p572
tp573
I264
s(S'0.25'
p574
g18
S'0.45'
p575
g18
S'0.25'
p576
tp577
I790
s(S'0.05'
p578
g18
S'0.5'
p579
g18
S'-0.05'
p580
tp581
I219
s(S'0.25'
p582
g18
S'0.35'
p583
g18
S'0.3'
p584
tp585
I770
s(S'0.1'
p586
g18
S'0.4'
p587
g18
S'0.3'
p588
tp589
I329
s(S'0.2'
p590
g18
S'0.2'
p591
g18
S'0.35'
p592
tp593
I593
s(S'0.3'
p594
g18
S'0.4'
p595
g18
S'0.2'
p596
tp597
I883
s(S'0.05'
p598
g18
S'0.15'
p599
g18
S'0.3'
p600
tp601
I129
s(S'0.2'
p602
g18
S'0.15'
p603
g18
S'0.4'
p604
tp605
I579
s(S'0.2'
p606
g18
S'0.15'
p607
g18
S'-0.05'
p608
tp609
I570
s(S'0.25'
p610
g18
S'0.15'
p611
g18
S'0.3'
p612
tp613
I719
s(S'0.1'
p614
g18
S'0.3'
p615
g18
S'0.4'
p616
tp617
I301
s(S'0.2'
p618
g18
S'0.2'
p619
g18
S'0.2'
p620
tp621
I590
s(S'0.05'
p622
g18
S'0.35'
p623
g18
S'-0.05'
p624
tp625
I178
s(S'0.05'
p626
g18
S'0.35'
p627
g18
S'0.4'
p628
tp629
I187
s(S'0.25'
p630
g18
S'0.3'
p631
g18
S'0.35'
p632
tp633
I759
s(S'0.15'
p634
g18
S'0.4'
p635
g18
S'0.25'
p636
tp637
I490
s(S'-0.0'
p638
g18
S'0.05'
p639
g18
S'0.35'
p640
tp641
I0
s(S'0.1'
p642
g18
S'0.15'
p643
g18
S'0.2'
p644
tp645
I254
s(S'0.05'
p646
g18
S'0.45'
p647
g18
S'0.1'
p648
tp649
I210
s(S'0.3'
p650
g18
S'0.1'
p651
g18
S'0.1'
p652
tp653
I818
s(S'0.05'
p654
g18
S'0.4'
p655
g18
S'0.2'
p656
tp657
I198
s(S'0.05'
p658
g18
S'0.45'
p659
g18
S'-0.2'
p660
tp661
I204
s(S'0.2'
p662
g18
S'0.35'
p663
g18
S'-0.15'
p664
tp665
I625
s(S'0.2'
p666
g18
S'0.5'
p667
g18
S'0.15'
p668
tp669
I666
s(S'0.1'
p670
g18
S'0.55'
p671
g18
S'0.0'
p672
tp673
I358
s(S'0.15'
p674
g18
S'0.5'
p675
g18
S'0.1'
p676
tp677
I510
s(S'0.1'
p678
g18
S'0.5'
p679
g18
S'0.2'
p680
tp681
I352
s(S'0.05'
p682
g18
S'0.25'
p683
g18
S'0.15'
p684
tp685
I152
s(S'0.25'
p686
g18
S'0.3'
p687
g18
S'0.3'
p688
tp689
I758
s(S'0.1'
p690
g18
S'0.25'
p691
g18
S'-0.3'
p692
tp693
I273
s(S'0.15'
p694
g18
S'0.2'
p695
g18
S'0.4'
p696
tp697
I434
s(S'0.2'
p698
g18
S'0.2'
p699
g18
S'0.05'
p700
tp701
I587
s(S'0.3'
p702
g18
S'0.25'
p703
g18
S'-0.05'
p704
tp705
I848
s(S'0.0'
p706
g18
S'0.35'
p707
g18
S'-0.15'
p708
tp709
I54
s(S'0.25'
p710
g18
S'0.2'
p711
g18
S'0.1'
p712
tp713
I728
s(S'0.0'
p714
g18
S'0.6'
p715
g18
S'0.0'
p716
tp717
I115
s(S'0.05'
p718
g18
S'0.35'
p719
g18
S'0.05'
p720
tp721
I180
s(S'0.25'
p722
g18
S'0.4'
p723
g18
S'0.05'
p724
tp725
I776
s(S'0.2'
p726
g18
S'0.4'
p727
g18
S'0.1'
p728
tp729
I643
s(S'0.25'
p730
g18
S'0.35'
p731
g18
S'0.25'
p732
tp733
I769
s(S'0.25'
p734
g18
S'0.3'
p735
g18
S'0.05'
p736
tp737
I753
s(S'0.3'
p738
g18
S'0.3'
p739
g18
S'-0.1'
p740
tp741
I858
s(S'0.15'
p742
g18
S'0.3'
p743
g18
S'-0.15'
p744
tp745
I453
s(S'0.2'
p746
g18
S'0.35'
p747
g18
S'0.25'
p748
tp749
I633
s(S'0.35'
p750
g18
S'0.15'
p751
g18
S'0.1'
p752
tp753
I909
s(S'0.3'
p754
g18
S'0.3'
p755
g18
S'0.0'
p756
tp757
I860
s(S'0.2'
p758
g18
S'0.05'
p759
g18
S'-0.05'
p760
tp761
I543
s(S'0.05'
p762
g18
S'0.6'
p763
g18
S'0.1'
p764
tp765
I239
s(S'0.15'
p766
g18
S'0.45'
p767
g18
S'-0.2'
p768
tp769
I493
s(S'-0.0'
p770
g18
S'0.15'
p771
g18
S'0.15'
p772
tp773
I7
s(S'0.3'
p774
g18
S'0.25'
p775
g18
S'0.05'
p776
tp777
I850
s(S'0.3'
p778
g18
S'0.15'
p779
g18
S'0.25'
p780
tp781
I832
s(S'0.15'
p782
g18
S'0.05'
p783
g18
S'0.35'
p784
tp785
I389
s(S'0.25'
p786
g18
S'0.1'
p787
g18
S'0.0'
p788
tp789
I700
s(S'0.05'
p790
g18
S'0.35'
p791
g18
S'-0.3'
p792
tp793
I173
s(S'0.05'
p794
g18
S'0.05'
p795
g18
S'0.35'
p796
tp797
I119
s(S'0.0'
p798
g18
S'0.35'
p799
g18
S'0.05'
p800
tp801
I58
s(S'0.2'
p802
g18
S'0.0'
p803
g18
S'-0.0'
p804
tp805
I532
s(S'0.35'
p806
g18
S'0.1'
p807
g18
S'0.15'
p808
tp809
I902
s(S'0.1'
p810
g18
S'0.2'
p811
g18
S'-0.3'
p812
tp813
I259
s(S'0.15'
p814
g18
S'0.4'
p815
g18
S'-0.1'
p816
tp817
I483
s(S'0.15'
p818
g18
S'0.25'
p819
g18
S'0.3'
p820
tp821
I447
s(S'0.3'
p822
g18
S'0.25'
p823
g18
S'0.3'
p824
tp825
I855
s(S'0.2'
p826
g18
S'0.2'
p827
g18
S'0.3'
p828
tp829
I592
s(S'0.1'
p830
g18
S'0.25'
p831
g18
S'0.1'
p832
tp833
I280
s(S'0.2'
p834
g18
S'0.5'
p835
g18
S'-0.1'
p836
tp837
I661
s(S'0.3'
p838
g18
S'0.4'
p839
g18
S'0.0'
p840
tp841
I879
s(S'0.15'
p842
g18
S'0.4'
p843
g18
S'0.05'
p844
tp845
I486
s(S'-0.0'
p846
g18
S'0.4'
p847
g18
S'0.1'
p848
tp849
I74
s(S'0.2'
p850
g18
S'0.25'
p851
g18
S'0.4'
p852
tp853
I609
s(S'0.25'
p854
g18
S'0.15'
p855
g18
S'-0.2'
p856
tp857
I709
s(S'0.2'
p858
g18
S'0.0'
p859
g18
S'0.3'
p860
tp861
I538
s(S'0.3'
p862
g18
S'0.0'
p863
g18
S'0.15'
p864
tp865
I802
s(S'0.35'
p866
g18
S'0.05'
p867
g18
S'0.15'
p868
tp869
I896
s(S'0.1'
p870
g18
S'0.3'
p871
g18
S'0.2'
p872
tp873
I297
s(S'0.35'
p874
g18
S'0.4'
p875
g18
S'0.05'
p876
tp877
I948
s(S'0.05'
p878
g18
S'0.5'
p879
g18
S'0.2'
p880
tp881
I224
s(S'0.3'
p882
g18
S'0.3'
p883
g18
S'0.15'
p884
tp885
I863
s(S'0.2'
p886
g18
S'0.05'
p887
g18
S'-0.0'
p888
tp889
I544
s(S'0.05'
p890
g18
S'0.5'
p891
g18
S'-0.1'
p892
tp893
I218
s(S'0.35'
p894
g18
S'0.35'
p895
g18
S'-0.05'
p896
tp897
I940
s(S'0.1'
p898
g18
S'0.2'
p899
g18
S'0.25'
p900
tp901
I269
s(S'0.3'
p902
g18
S'0.2'
p903
g18
S'0.15'
p904
tp905
I841
s(S'0.2'
p906
g18
S'0.45'
p907
g18
S'-0.2'
p908
tp909
I649
s(S'0.25'
p910
g18
S'0.0'
p911
g18
S'0.1'
p912
tp913
I680
s(S'0.05'
p914
g18
S'0.45'
p915
g18
S'0.3'
p916
tp917
I214
s(S'0.05'
p918
g18
S'0.2'
p919
g18
S'-0.2'
p920
tp921
I135
s(S'0.15'
p922
g18
S'0.35'
p923
g18
S'-0.15'
p924
tp925
I468
s(S'0.1'
p926
g18
S'0.35'
p927
g18
S'-0.3'
p928
tp929
I302
s(S'0.1'
p930
g18
S'0.15'
p931
g18
S'-0.3'
p932
tp933
I250
s(S'0.2'
p934
g18
S'0.25'
p935
g18
S'0.0'
p936
tp937
I601
s(S'0.1'
p938
g18
S'0.55'
p939
g18
S'0.2'
p940
tp941
I362
s(S'0.2'
p942
g18
S'0.05'
p943
g18
S'0.35'
p944
tp945
I551
s(S'-0.0'
p946
g18
S'0.15'
p947
g18
S'0.4'
p948
tp949
I12
s(S'0.2'
p950
g18
S'0.5'
p951
g18
S'0.1'
p952
tp953
I665
s(S'0.2'
p954
g18
S'0.4'
p955
g18
S'0.25'
p956
tp957
I646
s(S'0.3'
p958
g18
S'0.05'
p959
g18
S'0.1'
p960
tp961
I808
s(S'0.2'
p962
g18
S'0.3'
p963
g18
S'0.3'
p964
tp965
I621
s(S'0.15'
p966
g18
S'0.35'
p967
g18
S'0.4'
p968
tp969
I479
s(S'0.05'
p970
g18
S'0.3'
p971
g18
S'-0.15'
p972
tp973
I162
s(S'0.0'
p974
g18
S'0.45'
p975
g18
S'-0.05'
p976
tp977
I85
s(S'0.2'
p978
g18
S'0.05'
p979
g18
S'-0.15'
p980
tp981
I541
s(S'0.15'
p982
g18
S'0.1'
p983
g18
S'0.25'
p984
tp985
I401
s(S'0.2'
p986
g18
S'0.2'
p987
g18
S'0.15'
p988
tp989
I589
s(S'0.1'
p990
g18
S'0.55'
p991
g18
S'-0.1'
p992
tp993
I356
s(S'0.25'
p994
g18
S'0.25'
p995
g18
S'-0.05'
p996
tp997
I738
s(S'0.05'
p998
g18
S'0.35'
p999
g18
S'0.15'
p1000
tp1001
I182
s(S'0.1'
p1002
g18
S'0.35'
p1003
g18
S'0.35'
p1004
tp1005
I315
s(S'0.3'
p1006
g18
S'0.0'
p1007
g18
S'0.0'
p1008
tp1009
I799
s(S'0.3'
p1010
g18
S'0.25'
p1011
g18
S'-0.1'
p1012
tp1013
I847
s(S'0.0'
p1014
g18
S'0.3'
p1015
g18
S'-0.1'
p1016
tp1017
I43
s(S'0.25'
p1018
g18
S'0.15'
p1019
g18
S'-0.15'
p1020
tp1021
I710
s(S'0.3'
p1022
g18
S'0.3'
p1023
g18
S'0.2'
p1024
tp1025
I864
s(S'0.2'
p1026
g18
S'0.2'
p1027
g18
S'-0.25'
p1028
tp1029
I581
s(S'0.1'
p1030
g18
S'0.25'
p1031
g18
S'0.15'
p1032
tp1033
I281
s(S'0.05'
p1034
g18
S'0.55'
p1035
g18
S'-0.15'
p1036
tp1037
I227
s(S'0.35'
p1038
g18
S'0.1'
p1039
g18
S'0.1'
p1040
tp1041
I901
s(S'0.25'
p1042
g18
S'0.1'
p1043
g18
S'0.2'
p1044
tp1045
I704
s(S'0.05'
p1046
g18
S'0.4'
p1047
g18
S'-0.2'
p1048
tp1049
I190
s(S'0.05'
p1050
g18
S'0.4'
p1051
g18
S'0.3'
p1052
tp1053
I200
s(S'-0.0'
p1054
g18
S'0.2'
p1055
g18
S'0.35'
p1056
tp1057
I22
s(S'0.1'
p1058
g18
S'0.2'
p1059
g18
S'-0.1'
p1060
tp1061
I263
s(S'0.2'
p1062
g18
S'0.4'
p1063
g18
S'-0.15'
p1064
tp1065
I638
s(S'0.15'
p1066
g18
S'0.15'
p1067
g18
S'0.15'
p1068
tp1069
I414
s(S'0.2'
p1070
g18
S'0.35'
p1071
g18
S'-0.2'
p1072
tp1073
I624
s(S'0.1'
p1074
g18
S'0.25'
p1075
g18
S'0.3'
p1076
tp1077
I284
s(S'0.05'
p1078
g18
S'0.25'
p1079
g18
S'0.2'
p1080
tp1081
I153
s(S'0.25'
p1082
g18
S'0.1'
p1083
g18
S'0.35'
p1084
tp1085
I707
s(S'0.35'
p1086
g18
S'0.4'
p1087
g18
S'0.1'
p1088
tp1089
I949
s(S'-0.0'
p1090
g18
S'0.4'
p1091
g18
S'0.3'
p1092
tp1093
I78
s(S'0.2'
p1094
g18
S'0.25'
p1095
g18
S'0.2'
p1096
tp1097
I605
s(S'0.35'
p1098
g18
S'0.05'
p1099
g18
S'0.05'
p1100
tp1101
I894
s(S'0.0'
p1102
g18
S'0.25'
p1103
g18
S'-0.25'
p1104
tp1105
I27
s(S'0.15'
p1106
g18
S'0.05'
p1107
g18
S'-0.1'
p1108
tp1109
I380
s(S'0.2'
p1110
g18
S'0.15'
p1111
g18
S'-0.3'
p1112
tp1113
I565
s(S'0.1'
p1114
g18
S'0.3'
p1115
g18
S'0.0'
p1116
tp1117
I293
s(S'0.2'
p1118
g18
S'0.5'
p1119
g18
S'0.25'
p1120
tp1121
I668
s(S'0.3'
p1122
g18
S'0.05'
p1123
g18
S'0.25'
p1124
tp1125
I811
s(S'0.05'
p1126
g18
S'0.5'
p1127
g18
S'0.0'
p1128
tp1129
I220
s(S'0.05'
p1130
g18
S'0.35'
p1131
g18
S'0.0'
p1132
tp1133
I179
s(S'0.2'
p1134
g18
S'0.05'
p1135
g18
S'-0.2'
p1136
tp1137
I540
s(S'0.2'
p1138
g18
S'0.2'
p1139
g18
S'-0.1'
p1140
tp1141
I584
s(S'0.1'
p1142
g18
S'0.45'
p1143
g18
S'0.35'
p1144
tp1145
I343
s(S'0.15'
p1146
g18
S'0.05'
p1147
g18
S'-0.25'
p1148
tp1149
I377
s(S'0.35'
p1150
g18
S'0.3'
p1151
g18
S'0.0'
p1152
tp1153
I934
s(S'0.2'
p1154
g18
S'-0.05'
p1155
g18
S'0.05'
p1156
tp1157
I524
s(S'0.25'
p1158
g18
S'0.25'
p1159
g18
S'0.35'
p1160
tp1161
I746
s(S'0.3'
p1162
g18
S'0.25'
p1163
g18
S'-0.15'
p1164
tp1165
I846
s(S'0.2'
p1166
g18
S'0.1'
p1167
g18
S'-0.05'
p1168
tp1169
I556
s(S'0.1'
p1170
g18
S'0.35'
p1171
g18
S'-0.1'
p1172
tp1173
I306
s(S'0.1'
p1174
g18
S'0.05'
p1175
g18
S'0.35'
p1176
tp1177
I242
s(S'0.25'
p1178
g18
S'0.45'
p1179
g18
S'0.15'
p1180
tp1181
I788
s(S'0.0'
p1182
g18
S'0.45'
p1183
g18
S'-0.2'
p1184
tp1185
I82
s(S'0.15'
p1186
g18
S'0.45'
p1187
g18
S'0.2'
p1188
tp1189
I501
s(S'0.15'
p1190
g18
S'0.2'
p1191
g18
S'-0.15'
p1192
tp1193
I423
s(S'0.05'
p1194
g18
S'0.55'
p1195
g18
S'-0.05'
p1196
tp1197
I229
s(S'-0.0'
p1198
g18
S'0.5'
p1199
g18
S'0.0'
p1200
tp1201
I98
s(S'0.1'
p1202
g18
S'0.4'
p1203
g18
S'-0.3'
p1204
tp1205
I317
s(S'0.15'
p1206
g18
S'-0.0'
p1207
g18
S'0.15'
p1208
tp1209
I373
s(S'0.3'
p1210
g18
S'0.35'
p1211
g18
S'0.25'
p1212
tp1213
I875
s(S'0.4'
p1214
g18
S'0.25'
p1215
g18
S'0.05'
p1216
tp1217
I959
s(S'0.1'
p1218
g18
S'0.6'
p1219
g18
S'0.05'
p1220
tp1221
I365
s(S'0.15'
p1222
g18
S'0.35'
p1223
g18
S'0.2'
p1224
tp1225
I475
s(S'0.35'
p1226
g18
S'0.25'
p1227
g18
S'0.0'
p1228
tp1229
I925
s(S'0.35'
p1230
g18
S'0.3'
p1231
g18
S'0.2'
p1232
tp1233
I938
s(S'0.2'
p1234
g18
S'0.5'
p1235
g18
S'0.2'
p1236
tp1237
I667
s(S'0.1'
p1238
g18
S'0.15'
p1239
g18
S'0.25'
p1240
tp1241
I255
s(S'0.1'
p1242
g18
S'0.35'
p1243
g18
S'0.25'
p1244
tp1245
I313
s(S'0.2'
p1246
g18
S'0.3'
p1247
g18
S'0.05'
p1248
tp1249
I616
s(S'0.35'
p1250
g18
S'0.35'
p1251
g18
S'0.05'
p1252
tp1253
I942
s(S'0.15'
p1254
g18
S'0.1'
p1255
g18
S'0.35'
p1256
tp1257
I403
s(S'0.05'
p1258
g18
S'0.6'
p1259
g18
S'0.05'
p1260
tp1261
I238
s(S'0.15'
p1262
g18
S'0.1'
p1263
g18
S'-0.25'
p1264
tp1265
I391
s(S'0.1'
p1266
g18
S'0.5'
p1267
g18
S'0.25'
p1268
tp1269
I353
s(S'-0.0'
p1270
g18
S'0.35'
p1271
g18
S'0.2'
p1272
tp1273
I61
s(S'0.3'
p1274
g18
S'0.15'
p1275
g18
S'0.05'
p1276
tp1277
I828
s(S'0.1'
p1278
g18
S'0.15'
p1279
g18
S'0.4'
p1280
tp1281
I258
s(S'0.25'
p1282
g18
S'0.05'
p1283
g18
S'-0.2'
p1284
tp1285
I684
s(S'0.0'
p1286
g18
S'0.25'
p1287
g18
S'-0.05'
p1288
tp1289
I31
s(S'-0.0'
p1290
g18
S'0.15'
p1291
g18
S'0.35'
p1292
tp1293
I11
s(S'0.05'
p1294
g18
S'0.1'
p1295
g18
S'0.4'
p1296
tp1297
I125
s(S'0.15'
p1298
g18
S'0.15'
p1299
g18
S'0.1'
p1300
tp1301
I413
s(S'0.05'
p1302
g18
S'0.2'
p1303
g18
S'-0.35'
p1304
tp1305
I132
s(S'0.3'
p1306
g18
S'0.1'
p1307
g18
S'-0.05'
p1308
tp1309
I815
s(S'0.2'
p1310
g18
S'0.2'
p1311
g18
S'-0.2'
p1312
tp1313
I582
s(S'-0.0'
p1314
g18
S'0.25'
p1315
g18
S'0.3'
p1316
tp1317
I35
s(S'0.05'
p1318
g18
S'0.2'
p1319
g18
S'0.2'
p1320
tp1321
I139
s(S'-0.0'
p1322
g18
S'0.25'
p1323
g18
S'0.15'
p1324
tp1325
I32
s(S'0.05'
p1326
g18
S'0.4'
p1327
g18
S'0.05'
p1328
tp1329
I195
s(S'0.1'
p1330
g18
S'0.4'
p1331
g18
S'-0.15'
p1332
tp1333
I320
s(S'0.05'
p1334
g18
S'0.4'
p1335
g18
S'0.15'
p1336
tp1337
I197
s(S'0.0'
p1338
g18
S'0.5'
p1339
g18
S'-0.15'
p1340
tp1341
I95
s(S'0.0'
p1342
g18
S'0.4'
p1343
g18
S'-0.3'
p1344
tp1345
I66
s(S'0.1'
p1346
g18
S'0.3'
p1347
g18
S'-0.25'
p1348
tp1349
I288
s(S'0.15'
p1350
g18
S'0.05'
p1351
g18
S'0.0'
p1352
tp1353
I382
s(S'0.3'
p1354
g18
S'0.4'
p1355
g18
S'-0.05'
p1356
tp1357
I878
s(S'-0.0'
p1358
g18
S'0.55'
p1359
g18
S'0.15'
p1360
tp1361
I111
s(S'0.25'
p1362
g18
S'0.25'
p1363
g18
S'-0.2'
p1364
tp1365
I735
s(S'-0.0'
p1366
g18
S'0.2'
p1367
g18
S'-0.15'
p1368
tp1369
I17
s(S'0.05'
p1370
g18
S'0.45'
p1371
g18
S'0.25'
p1372
tp1373
I213
s(S'0.25'
p1374
g18
S'0.3'
p1375
g18
S'-0.1'
p1376
tp1377
I750
s(S'0.2'
p1378
g18
S'0.15'
p1379
g18
S'-0.1'
p1380
tp1381
I569
s(S'0.15'
p1382
g18
S'0.55'
p1383
g18
S'0.1'
p1384
tp1385
I518
s(S'0.25'
p1386
g18
S'0.35'
p1387
g18
S'0.0'
p1388
tp1389
I764
s(S'0.25'
p1390
g18
S'0.2'
p1391
g18
S'-0.15'
p1392
tp1393
I723
s(S'0.25'
p1394
g18
S'0.45'
p1395
g18
S'-0.1'
p1396
tp1397
I783
s(S'0.15'
p1398
g18
S'0.5'
p1399
g18
S'0.25'
p1400
tp1401
I513
s(S'0.2'
p1402
g18
S'0.2'
p1403
g18
S'-0.3'
p1404
tp1405
I580
s(S'0.05'
p1406
g18
S'0.3'
p1407
g18
S'0.1'
p1408
tp1409
I166
s(S'0.15'
p1410
g18
S'0.45'
p1411
g18
S'0.0'
p1412
tp1413
I497
s(S'0.35'
p1414
g18
S'0.25'
p1415
g18
S'0.05'
p1416
tp1417
I926
s(S'-0.0'
p1418
g18
S'0.2'
p1419
g18
S'0.4'
p1420
tp1421
I23
s(S'0.3'
p1422
g18
S'0.05'
p1423
g18
S'0.2'
p1424
tp1425
I810
s(S'0.2'
p1426
g18
S'0.0'
p1427
g18
S'-0.15'
p1428
tp1429
I529
s(S'0.25'
p1430
g18
S'0.1'
p1431
g18
S'-0.2'
p1432
tp1433
I696
s(S'0.05'
p1434
g18
S'0.4'
p1435
g18
S'-0.05'
p1436
tp1437
I193
s(S'0.4'
p1438
g18
S'0.25'
p1439
g18
S'0.1'
p1440
tp1441
I960
s(S'0.2'
p1442
g18
S'0.45'
p1443
g18
S'0.2'
p1444
tp1445
I657
s(S'0.1'
p1446
g18
S'0.5'
p1447
g18
S'-0.15'
p1448
tp1449
I345
s(S'0.3'
p1450
g18
S'0.0'
p1451
g18
S'0.05'
p1452
tp1453
I800
s(S'0.05'
p1454
g18
S'0.2'
p1455
g18
S'0.25'
p1456
tp1457
I140
s(S'-0.0'
p1458
g18
S'0.5'
p1459
g18
S'0.2'
p1460
tp1461
I102
s(S'0.35'
p1462
g18
S'0.15'
p1463
g18
S'0.25'
p1464
tp1465
I912
s(S'0.1'
p1466
g18
S'0.5'
p1467
g18
S'-0.05'
p1468
tp1469
I347
s(S'0.05'
p1470
g18
S'0.45'
p1471
g18
S'0.05'
p1472
tp1473
I209
s(S'0.1'
p1474
g18
S'0.2'
p1475
g18
S'0.3'
p1476
tp1477
I270
s(S'0.3'
p1478
g18
S'0.45'
p1479
g18
S'0.1'
p1480
tp1481
I889
s(S'0.3'
p1482
g18
S'0.25'
p1483
g18
S'0.2'
p1484
tp1485
I853
s(S'0.15'
p1486
g18
S'0.35'
p1487
g18
S'0.0'
p1488
tp1489
I471
s(S'0.05'
p1490
g18
S'0.4'
p1491
g18
S'-0.15'
p1492
tp1493
I191
s(S'0.2'
p1494
g18
S'0.35'
p1495
g18
S'-0.25'
p1496
tp1497
I623
s(S'0.2'
p1498
g18
S'0.4'
p1499
g18
S'-0.2'
p1500
tp1501
I637
s(S'0.05'
p1502
g18
S'0.6'
p1503
g18
S'0.15'
p1504
tp1505
I240
s(S'0.2'
p1506
g18
S'0.15'
p1507
g18
S'0.3'
p1508
tp1509
I577
s(S'0.05'
p1510
g18
S'0.5'
p1511
g18
S'0.15'
p1512
tp1513
I223
s(S'0.15'
p1514
g18
S'0.45'
p1515
g18
S'0.25'
p1516
tp1517
I502
s(S'0.25'
p1518
g18
S'0.45'
p1519
g18
S'0.05'
p1520
tp1521
I786
s(S'0.1'
p1522
g18
S'0.15'
p1523
g18
S'0.35'
p1524
tp1525
I257
s(S'0.2'
p1526
g18
S'0.25'
p1527
g18
S'-0.2'
p1528
tp1529
I597
s(S'0.3'
p1530
g18
S'0.15'
p1531
g18
S'0.3'
p1532
tp1533
I833
s(S'0.1'
p1534
g18
S'0.15'
p1535
g18
S'-0.25'
p1536
tp1537
I251
s(S'0.15'
p1538
g18
S'0.35'
p1539
g18
S'0.35'
p1540
tp1541
I478
s(S'0.1'
p1542
g18
S'0.35'
p1543
g18
S'-0.25'
p1544
tp1545
I303
s(S'0.1'
p1546
g18
S'0.55'
p1547
g18
S'0.25'
p1548
tp1549
I363
s(S'-0.0'
p1550
g18
S'0.35'
p1551
g18
S'0.0'
p1552
tp1553
I57
s(S'0.0'
p1554
g18
S'0.3'
p1555
g18
S'-0.05'
p1556
tp1557
I44
s(S'0.1'
p1558
g18
S'0.3'
p1559
g18
S'0.05'
p1560
tp1561
I294
s(S'0.15'
p1562
g18
S'0.25'
p1563
g18
S'0.25'
p1564
tp1565
I446
s(S'0.2'
p1566
g18
S'0.05'
p1567
g18
S'0.2'
p1568
tp1569
I548
s(S'0.1'
p1570
g18
S'0.45'
p1571
g18
S'-0.25'
p1572
tp1573
I331
s(S'0.05'
p1574
g18
S'0.1'
p1575
g18
S'0.2'
p1576
tp1577
I121
s(S'0.15'
p1578
g18
S'0.15'
p1579
g18
S'0.3'
p1580
tp1581
I417
s(S'0.35'
p1582
g18
S'0.15'
p1583
g18
S'0.2'
p1584
tp1585
I911
s(S'0.25'
p1586
g18
S'0.35'
p1587
g18
S'-0.2'
p1588
tp1589
I760
s(S'0.05'
p1590
g18
S'0.25'
p1591
g18
S'0.4'
p1592
tp1593
I157
s(S'0.05'
p1594
g18
S'0.25'
p1595
g18
S'-0.05'
p1596
tp1597
I151
s(S'0.0'
p1598
g18
S'0.55'
p1599
g18
S'0.25'
p1600
tp1601
I113
s(S'0.15'
p1602
g18
S'0.45'
p1603
g18
S'0.05'
p1604
tp1605
I498
s(S'0.05'
p1606
g18
S'0.2'
p1607
g18
S'0.4'
p1608
tp1609
I143
s(S'0.05'
p1610
g18
S'0.55'
p1611
g18
S'0.2'
p1612
tp1613
I234
s(S'0.25'
p1614
g18
S'0.1'
p1615
g18
S'-0.15'
p1616
tp1617
I697
s(S'0.0'
p1618
g18
S'0.4'
p1619
g18
S'-0.05'
p1620
tp1621
I71
s(S'0.15'
p1622
g18
S'0.2'
p1623
g18
S'0.3'
p1624
tp1625
I432
s(S'0.1'
p1626
g18
S'0.1'
p1627
g18
S'0.2'
p1628
tp1629
I245
s(S'0.05'
p1630
g18
S'0.3'
p1631
g18
S'0.25'
p1632
tp1633
I169
s(S'0.15'
p1634
g18
S'0.2'
p1635
g18
S'-0.2'
p1636
tp1637
I422
s(S'0.2'
p1638
g18
S'-0.05'
p1639
g18
S'-0.1'
p1640
tp1641
I521
s(S'0.05'
p1642
g18
S'0.2'
p1643
g18
S'0.35'
p1644
tp1645
I142
s(S'0.05'
p1646
g18
S'0.3'
p1647
g18
S'0.15'
p1648
tp1649
I167
s(S'0.3'
p1650
g18
S'0.15'
p1651
g18
S'-0.1'
p1652
tp1653
I825
s(S'0.2'
p1654
g18
S'0.3'
p1655
g18
S'-0.15'
p1656
tp1657
I612
s(S'0.2'
p1658
g18
S'0.55'
p1659
g18
S'0.05'
p1660
tp1661
I671
s(S'0.15'
p1662
g18
S'0.2'
p1663
g18
S'0.15'
p1664
tp1665
I429
s(S'0.1'
p1666
g18
S'0.2'
p1667
g18
S'-0.25'
p1668
tp1669
I260
s(S'0.35'
p1670
g18
S'0.2'
p1671
g18
S'0.0'
p1672
tp1673
I916
s(S'0.3'
p1674
g18
S'0.4'
p1675
g18
S'-0.1'
p1676
tp1677
I877
s(S'0.05'
p1678
g18
S'0.55'
p1679
g18
S'0.25'
p1680
tp1681
I235
s(S'0.25'
p1682
g18
S'0.05'
p1683
g18
S'0.2'
p1684
tp1685
I692
s(S'0.15'
p1686
g18
S'-0.0'
p1687
g18
S'0.2'
p1688
tp1689
I374
s(S'0.05'
p1690
g18
S'0.45'
p1691
g18
S'-0.25'
p1692
tp1693
I203
s(S'0.15'
p1694
g18
S'0.55'
p1695
g18
S'0.15'
p1696
tp1697
I519
s(S'0.15'
p1698
g18
S'0.1'
p1699
g18
S'-0.05'
p1700
tp1701
I395
s(S'0.25'
p1702
g18
S'0.05'
p1703
g18
S'-0.05'
p1704
tp1705
I687
s(S'0.05'
p1706
g18
S'0.3'
p1707
g18
S'0.3'
p1708
tp1709
I170
s(S'0.2'
p1710
g18
S'0.3'
p1711
g18
S'-0.05'
p1712
tp1713
I614
s(S'-0.0'
p1714
g18
S'0.2'
p1715
g18
S'0.2'
p1716
tp1717
I19
s(S'0.25'
p1718
g18
S'0.2'
p1719
g18
S'-0.2'
p1720
tp1721
I722
s(S'0.25'
p1722
g18
S'0.15'
p1723
g18
S'0.35'
p1724
tp1725
I720
s(S'0.3'
p1726
g18
S'0.05'
p1727
g18
S'0.05'
p1728
tp1729
I807
s(S'-0.0'
p1730
g18
S'0.4'
p1731
g18
S'0.25'
p1732
tp1733
I77
s(S'0.0'
p1734
g18
S'0.4'
p1735
g18
S'0.05'
p1736
tp1737
I73
s(S'0.0'
p1738
g18
S'0.35'
p1739
g18
S'0.4'
p1740
tp1741
I65
s(S'0.15'
p1742
g18
S'0.3'
p1743
g18
S'0.35'
p1744
tp1745
I463
s(S'0.0'
p1746
g18
S'0.3'
p1747
g18
S'-0.25'
p1748
tp1749
I40
s(S'0.35'
p1750
g18
S'0.1'
p1751
g18
S'-0.05'
p1752
tp1753
I898
s(S'0.1'
p1754
g18
S'0.55'
p1755
g18
S'-0.15'
p1756
tp1757
I355
s(S'0.05'
p1758
g18
S'0.55'
p1759
g18
S'0.15'
p1760
tp1761
I233
s(S'0.3'
p1762
g18
S'0.3'
p1763
g18
S'0.1'
p1764
tp1765
I862
s(S'0.15'
p1766
g18
S'0.3'
p1767
g18
S'0.25'
p1768
tp1769
I461
s(S'0.2'
p1770
g18
S'0.25'
p1771
g18
S'0.1'
p1772
tp1773
I603
s(S'0.0'
p1774
g18
S'0.35'
p1775
g18
S'-0.3'
p1776
tp1777
I51
s(S'0.2'
p1778
g18
S'0.35'
p1779
g18
S'0.0'
p1780
tp1781
I628
s(S'0.1'
p1782
g18
S'0.55'
p1783
g18
S'-0.05'
p1784
tp1785
I357
s(S'0.15'
p1786
g18
S'0.2'
p1787
g18
S'0.05'
p1788
tp1789
I427
s(S'0.05'
p1790
g18
S'0.3'
p1791
g18
S'0.35'
p1792
tp1793
I171
s(S'0.2'
p1794
g18
S'0.3'
p1795
g18
S'0.2'
p1796
tp1797
I619
s(S'0.1'
p1798
g18
S'0.2'
p1799
g18
S'0.1'
p1800
tp1801
I266
s(S'0.25'
p1802
g18
S'0.1'
p1803
g18
S'0.05'
p1804
tp1805
I701
s(S'0.2'
p1806
g18
S'0.0'
p1807
g18
S'0.2'
p1808
tp1809
I536
s(S'0.3'
p1810
g18
S'0.25'
p1811
g18
S'0.0'
p1812
tp1813
I849
s(S'0.1'
p1814
g18
S'0.3'
p1815
g18
S'-0.2'
p1816
tp1817
I289
s(S'0.35'
p1818
g18
S'0.3'
p1819
g18
S'0.15'
p1820
tp1821
I937
s(S'0.2'
p1822
g18
S'0.15'
p1823
g18
S'0.1'
p1824
tp1825
I573
s(S'0.35'
p1826
g18
S'0.25'
p1827
g18
S'0.2'
p1828
tp1829
I929
s(S'-0.0'
p1830
g18
S'0.3'
p1831
g18
S'0.3'
p1832
tp1833
I48
s(S'0.25'
p1834
g18
S'0.25'
p1835
g18
S'0.2'
p1836
tp1837
I743
s(S'0.3'
p1838
g18
S'0.15'
p1839
g18
S'0.1'
p1840
tp1841
I829
s(S'0.0'
p1842
g18
S'0.5'
p1843
g18
S'0.1'
p1844
tp1845
I100
s(S'0.2'
p1846
g18
S'0.55'
p1847
g18
S'0.0'
p1848
tp1849
I670
s(S'0.05'
p1850
g18
S'0.3'
p1851
g18
S'-0.1'
p1852
tp1853
I163
s(S'0.15'
p1854
g18
S'0.25'
p1855
g18
S'0.35'
p1856
tp1857
I448
s(S'0.25'
p1858
g18
S'0.4'
p1859
g18
S'0.25'
p1860
tp1861
I780
s(S'0.25'
p1862
g18
S'0.05'
p1863
g18
S'0.15'
p1864
tp1865
I691
s(S'0.35'
p1866
g18
S'0.35'
p1867
g18
S'0.1'
p1868
tp1869
I943
s(S'0.3'
p1870
g18
S'0.3'
p1871
g18
S'-0.05'
p1872
tp1873
I859
s(S'0.15'
p1874
g18
S'0.1'
p1875
g18
S'0.0'
p1876
tp1877
I396
s(S'0.25'
p1878
g18
S'0.25'
p1879
g18
S'0.0'
p1880
tp1881
I739
s(S'0.05'
p1882
g18
S'0.35'
p1883
g18
S'0.35'
p1884
tp1885
I186
s(S'0.35'
p1886
g18
S'0.15'
p1887
g18
S'0.0'
p1888
tp1889
I907
s(S'0.1'
p1890
g18
S'0.5'
p1891
g18
S'0.05'
p1892
tp1893
I349
s(S'0.4'
p1894
g18
S'0.2'
p1895
g18
S'0.1'
p1896
tp1897
I957
s(S'0.15'
p1898
g18
S'-0.0'
p1899
g18
S'-0.1'
p1900
tp1901
I368
s(S'0.1'
p1902
g18
S'0.4'
p1903
g18
S'0.05'
p1904
tp1905
I324
s(S'0.15'
p1906
g18
S'-0.0'
p1907
g18
S'0.0'
p1908
tp1909
I370
s(S'0.3'
p1910
g18
S'0.1'
p1911
g18
S'-0.1'
p1912
tp1913
I814
s(S'0.2'
p1914
g18
S'0.0'
p1915
g18
S'0.05'
p1916
tp1917
I533
s(S'0.05'
p1918
g18
S'0.4'
p1919
g18
S'0.0'
p1920
tp1921
I194
s(S'0.15'
p1922
g18
S'0.5'
p1923
g18
S'-0.05'
p1924
tp1925
I507
s(S'0.05'
p1926
g18
S'0.55'
p1927
g18
S'0.0'
p1928
tp1929
I230
s(S'0.2'
p1930
g18
S'0.1'
p1931
g18
S'0.05'
p1932
tp1933
I558
s(S'0.2'
p1934
g18
S'-0.05'
p1935
g18
S'0.2'
p1936
tp1937
I527
s(S'0.0'
p1938
g18
S'0.35'
p1939
g18
S'-0.05'
p1940
tp1941
I56
s(S'0.15'
p1942
g18
S'0.25'
p1943
g18
S'0.15'
p1944
tp1945
I444
s(S'0.15'
p1946
g18
S'0.2'
p1947
g18
S'0.1'
p1948
tp1949
I428
s(S'0.15'
p1950
g18
S'0.25'
p1951
g18
S'-0.1'
p1952
tp1953
I439
s(S'0.15'
p1954
g18
S'0.5'
p1955
g18
S'-0.1'
p1956
tp1957
I506
s(S'0.15'
p1958
g18
S'0.4'
p1959
g18
S'-0.05'
p1960
tp1961
I484
s(S'0.15'
p1962
g18
S'0.1'
p1963
g18
S'-0.1'
p1964
tp1965
I394
s(S'0.1'
p1966
g18
S'0.1'
p1967
g18
S'0.25'
p1968
tp1969
I246
s(S'0.1'
p1970
g18
S'0.4'
p1971
g18
S'0.1'
p1972
tp1973
I325
s(S'0.0'
p1974
g18
S'0.5'
p1975
g18
S'0.25'
p1976
tp1977
I103
s(S'0.2'
p1978
g18
S'0.25'
p1979
g18
S'-0.05'
p1980
tp1981
I600
s(S'0.25'
p1982
g18
S'0.25'
p1983
g18
S'-0.15'
p1984
tp1985
I736
s(S'0.2'
p1986
g18
S'0.05'
p1987
g18
S'0.05'
p1988
tp1989
I545
s(S'0.15'
p1990
g18
S'0.3'
p1991
g18
S'0.1'
p1992
tp1993
I458
s(S'-0.0'
p1994
g18
S'0.1'
p1995
g18
S'0.35'
p1996
tp1997
I5
s(S'0.3'
p1998
g18
S'0.3'
p1999
g18
S'-0.15'
p2000
tp2001
I857
s(S'0.2'
p2002
g18
S'0.05'
p2003
g18
S'0.15'
p2004
tp2005
I547
s(S'0.35'
p2006
g18
S'0.2'
p2007
g18
S'-0.1'
p2008
tp2009
I914
s(S'0.2'
p2010
g18
S'0.1'
p2011
g18
S'-0.25'
p2012
tp2013
I552
s(S'0.05'
p2014
g18
S'0.3'
p2015
g18
S'0.2'
p2016
tp2017
I168
s(S'0.25'
p2018
g18
S'0.1'
p2019
g18
S'-0.25'
p2020
tp2021
I695
s(S'0.05'
p2022
g18
S'0.6'
p2023
g18
S'-0.05'
p2024
tp2025
I236
s(S'0.2'
p2026
g18
S'0.25'
p2027
g18
S'-0.15'
p2028
tp2029
I598
s(S'-0.0'
p2030
g18
S'0.25'
p2031
g18
S'-0.1'
p2032
tp2033
I30
s(S'0.05'
p2034
g18
S'0.25'
p2035
g18
S'-0.2'
p2036
tp2037
I148
s(S'0.15'
p2038
g18
S'0.5'
p2039
g18
S'0.05'
p2040
tp2041
I509
s(S'0.2'
p2042
g18
S'0.1'
p2043
g18
S'0.2'
p2044
tp2045
I561
s(S'0.15'
p2046
g18
S'0.15'
p2047
g18
S'-0.3'
p2048
tp2049
I405
s(S'0.1'
p2050
g18
S'0.05'
p2051
g18
S'0.3'
p2052
tp2053
I241
s(S'0.2'
p2054
g18
S'0.1'
p2055
g18
S'-0.1'
p2056
tp2057
I555
s(S'0.35'
p2058
g18
S'0.25'
p2059
g18
S'0.25'
p2060
tp2061
I930
s(S'0.1'
p2062
g18
S'0.45'
p2063
g18
S'0.2'
p2064
tp2065
I340
s(S'0.0'
p2066
g18
S'0.35'
p2067
g18
S'-0.1'
p2068
tp2069
I55
s(S'0.2'
p2070
g18
S'0.35'
p2071
g18
S'0.2'
p2072
tp2073
I632
s(S'0.05'
p2074
g18
S'0.35'
p2075
g18
S'0.2'
p2076
tp2077
I183
s(S'0.15'
p2078
g18
S'0.2'
p2079
g18
S'0.35'
p2080
tp2081
I433
s(S'0.15'
p2082
g18
S'0.25'
p2083
g18
S'-0.3'
p2084
tp2085
I435
s(S'0.2'
p2086
g18
S'0.0'
p2087
g18
S'-0.1'
p2088
tp2089
I530
s(S'0.15'
p2090
g18
S'0.35'
p2091
g18
S'-0.3'
p2092
tp2093
I465
s(S'-0.0'
p2094
g18
S'0.3'
p2095
g18
S'0.35'
p2096
tp2097
I49
s(S'0.1'
p2098
g18
S'0.2'
p2099
g18
S'0.4'
p2100
tp2101
I272
s(S'0.15'
p2102
g18
S'0.3'
p2103
g18
S'-0.25'
p2104
tp2105
I451
s(S'0.0'
p2106
g18
S'0.5'
p2107
g18
S'0.15'
p2108
tp2109
I101
s(S'0.2'
p2110
g18
S'0.15'
p2111
g18
S'0.15'
p2112
tp2113
I574
s(S'0.3'
p2114
g18
S'0.1'
p2115
g18
S'0.15'
p2116
tp2117
I819
s(S'0.15'
p2118
g18
S'0.35'
p2119
g18
S'-0.05'
p2120
tp2121
I470
s(S'0.2'
p2122
g18
S'0.4'
p2123
g18
S'0.2'
p2124
tp2125
I645
s(S'0.05'
p2126
g18
S'0.35'
p2127
g18
S'-0.2'
p2128
tp2129
I175
s(S'0.25'
p2130
g18
S'0.05'
p2131
g18
S'0.05'
p2132
tp2133
I689
s(S'0.3'
p2134
g18
S'0.2'
p2135
g18
S'-0.1'
p2136
tp2137
I836
s(S'0.1'
p2138
g18
S'0.6'
p2139
g18
S'0.0'
p2140
tp2141
I364
s(S'-0.0'
p2142
g18
S'0.1'
p2143
g18
S'0.4'
p2144
tp2145
I6
s(S'0.2'
p2146
g18
S'0.45'
p2147
g18
S'0.25'
p2148
tp2149
I658
s(S'0.1'
p2150
g18
S'0.4'
p2151
g18
S'-0.1'
p2152
tp2153
I321
s(S'0.05'
p2154
g18
S'0.3'
p2155
g18
S'-0.3'
p2156
tp2157
I159
s(S'0.25'
p2158
g18
S'0.2'
p2159
g18
S'0.15'
p2160
tp2161
I729
s(S'0.3'
p2162
g18
S'0.35'
p2163
g18
S'-0.1'
p2164
tp2165
I868
s(S'0.05'
p2166
g18
S'0.4'
p2167
g18
S'-0.25'
p2168
tp2169
I189
s(S'0.2'
p2170
g18
S'0.3'
p2171
g18
S'-0.2'
p2172
tp2173
I611
s(S'0.15'
p2174
g18
S'0.4'
p2175
g18
S'-0.25'
p2176
tp2177
I480
s(S'0.3'
p2178
g18
S'0.35'
p2179
g18
S'0.0'
p2180
tp2181
I870
s(S'0.3'
p2182
g18
S'0.3'
p2183
g18
S'0.05'
p2184
tp2185
I861
s(S'0.25'
p2186
g18
S'0.0'
p2187
g18
S'-0.05'
p2188
tp2189
I677
s(S'0.0'
p2190
g18
S'0.5'
p2191
g18
S'-0.05'
p2192
tp2193
I97
s(S'0.15'
p2194
g18
S'0.1'
p2195
g18
S'0.1'
p2196
tp2197
I398
s(S'0.1'
p2198
g18
S'0.55'
p2199
g18
S'0.05'
p2200
tp2201
I359
s(S'0.15'
p2202
g18
S'0.35'
p2203
g18
S'0.15'
p2204
tp2205
I474
s(S'0.3'
p2206
g18
S'0.1'
p2207
g18
S'0.2'
p2208
tp2209
I820
s(S'0.15'
p2210
g18
S'0.1'
p2211
g18
S'-0.15'
p2212
tp2213
I393
s(S'0.2'
p2214
g18
S'0.25'
p2215
g18
S'0.35'
p2216
tp2217
I608
s(S'0.1'
p2218
g18
S'0.3'
p2219
g18
S'0.25'
p2220
tp2221
I298
s(S'0.15'
p2222
g18
S'0.25'
p2223
g18
S'0.05'
p2224
tp2225
I442
s(S'0.3'
p2226
g18
S'0.05'
p2227
g18
S'-0.15'
p2228
tp2229
I803
s(S'-0.0'
p2230
g18
S'0.3'
p2231
g18
S'0.25'
p2232
tp2233
I47
s(S'0.25'
p2234
g18
S'0.05'
p2235
g18
S'0.25'
p2236
tp2237
I693
s(S'0.1'
p2238
g18
S'0.45'
p2239
g18
S'0.15'
p2240
tp2241
I339
s(S'0.2'
p2242
g18
S'0.15'
p2243
g18
S'-0.25'
p2244
tp2245
I566
s(S'0.0'
p2246
g18
S'0.4'
p2247
g18
S'0.0'
p2248
tp2249
I72
s(S'0.1'
p2250
g18
S'0.5'
p2251
g18
S'-0.2'
p2252
tp2253
I344
s(S'0.3'
p2254
g18
S'0.2'
p2255
g18
S'0.05'
p2256
tp2257
I839
s(S'0.05'
p2258
g18
S'0.35'
p2259
g18
S'-0.15'
p2260
tp2261
I176
s(S'0.2'
p2262
g18
S'0.1'
p2263
g18
S'0.15'
p2264
tp2265
I560
s(S'0.25'
p2266
g18
S'0.4'
p2267
g18
S'0.0'
p2268
tp2269
I775
s(S'0.2'
p2270
g18
S'0.45'
p2271
g18
S'0.3'
p2272
tp2273
I659
s(S'0.35'
p2274
g18
S'0.05'
p2275
g18
S'0.1'
p2276
tp2277
I895
s(S'0.0'
p2278
g18
S'0.45'
p2279
g18
S'0.3'
p2280
tp2281
I92
s(S'0.0'
p2282
g18
S'0.55'
p2283
g18
S'-0.1'
p2284
tp2285
I106
s(S'0.25'
p2286
g18
S'0.2'
p2287
g18
S'0.2'
p2288
tp2289
I730
s(S'0.05'
p2290
g18
S'0.5'
p2291
g18
S'-0.15'
p2292
tp2293
I217
s(S'0.05'
p2294
g18
S'0.1'
p2295
g18
S'0.35'
p2296
tp2297
I124
s(S'0.05'
p2298
g18
S'0.4'
p2299
g18
S'-0.1'
p2300
tp2301
I192
s(S'0.25'
p2302
g18
S'0.05'
p2303
g18
S'-0.15'
p2304
tp2305
I685
s(S'0.35'
p2306
g18
S'0.2'
p2307
g18
S'-0.15'
p2308
tp2309
I913
s(S'0.1'
p2310
g18
S'0.3'
p2311
g18
S'-0.15'
p2312
tp2313
I290
s(S'0.25'
p2314
g18
S'0.15'
p2315
g18
S'0.15'
p2316
tp2317
I716
s(S'0.0'
p2318
g18
S'0.45'
p2319
g18
S'0.15'
p2320
tp2321
I89
s(S'0.2'
p2322
g18
S'0.15'
p2323
g18
S'-0.15'
p2324
tp2325
I568
s(S'0.1'
p2326
g18
S'0.25'
p2327
g18
S'-0.15'
p2328
tp2329
I276
s(S'0.0'
p2330
g18
S'0.45'
p2331
g18
S'0.25'
p2332
tp2333
I91
s(S'0.2'
p2334
g18
S'0.1'
p2335
g18
S'0.0'
p2336
tp2337
I557
s(S'0.25'
p2338
g18
S'0.35'
p2339
g18
S'-0.05'
p2340
tp2341
I763
s(S'0.0'
p2342
g18
S'0.5'
p2343
g18
S'-0.2'
p2344
tp2345
I94
s(S'-0.0'
p2346
g18
S'0.25'
p2347
g18
S'0.4'
p2348
tp2349
I37
s(S'0.1'
p2350
g18
S'0.45'
p2351
g18
S'0.0'
p2352
tp2353
I336
s(S'0.05'
p2354
g18
S'0.15'
p2355
g18
S'0.35'
p2356
tp2357
I130
s(S'0.2'
p2358
g18
S'0.45'
p2359
g18
S'-0.15'
p2360
tp2361
I650
s(S'0.25'
p2362
g18
S'0.35'
p2363
g18
S'-0.15'
p2364
tp2365
I761
s(S'0.15'
p2366
g18
S'0.35'
p2367
g18
S'-0.1'
p2368
tp2369
I469
s(S'0.25'
p2370
g18
S'0.1'
p2371
g18
S'0.15'
p2372
tp2373
I703
s(S'0.35'
p2374
g18
S'0.05'
p2375
g18
S'0.0'
p2376
tp2377
I893
s(S'0.25'
p2378
g18
S'0.0'
p2379
g18
S'0.15'
p2380
tp2381
I681
s(S'0.1'
p2382
g18
S'0.25'
p2383
g18
S'-0.05'
p2384
tp2385
I278
s(S'0.1'
p2386
g18
S'0.4'
p2387
g18
S'0.0'
p2388
tp2389
I323
s(S'0.15'
p2390
g18
S'0.3'
p2391
g18
S'-0.3'
p2392
tp2393
I450
s(S'0.05'
p2394
g18
S'0.15'
p2395
g18
S'0.4'
p2396
tp2397
I131
s(S'-0.0'
p2398
g18
S'0.25'
p2399
g18
S'0.35'
p2400
tp2401
I36
s(S'0.25'
p2402
g18
S'0.15'
p2403
g18
S'-0.1'
p2404
tp2405
I711
s(S'0.15'
p2406
g18
S'0.0'
p2407
g18
S'0.25'
p2408
tp2409
I375
s(S'0.1'
p2410
g18
S'0.45'
p2411
g18
S'0.25'
p2412
tp2413
I341
s(S'0.25'
p2414
g18
S'0.15'
p2415
g18
S'0.0'
p2416
tp2417
I713
s(S'0.2'
p2418
g18
S'0.25'
p2419
g18
S'-0.25'
p2420
tp2421
I596
s(S'-0.0'
p2422
g18
S'0.3'
p2423
g18
S'0.15'
p2424
tp2425
I45
s(S'0.2'
p2426
g18
S'0.2'
p2427
g18
S'0.1'
p2428
tp2429
I588
s(S'0.1'
p2430
g18
S'0.4'
p2431
g18
S'0.25'
p2432
tp2433
I328
s(S'0.15'
p2434
g18
S'0.05'
p2435
g18
S'0.15'
p2436
tp2437
I385
s(S'0.25'
p2438
g18
S'0.5'
p2439
g18
S'0.1'
p2440
tp2441
I795
s(S'0.15'
p2442
g18
S'0.15'
p2443
g18
S'-0.05'
p2444
tp2445
I410
s(S'0.3'
p2446
g18
S'0.35'
p2447
g18
S'0.2'
p2448
tp2449
I874
s(S'0.25'
p2450
g18
S'0.0'
p2451
g18
S'-0.15'
p2452
tp2453
I675
s(S'0.05'
p2454
g18
S'0.25'
p2455
g18
S'-0.35'
p2456
tp2457
I145
s(S'0.2'
p2458
g18
S'0.25'
p2459
g18
S'0.25'
p2460
tp2461
I606
s(S'0.1'
p2462
g18
S'0.35'
p2463
g18
S'0.1'
p2464
tp2465
I310
s(S'0.35'
p2466
g18
S'0.15'
p2467
g18
S'-0.05'
p2468
tp2469
I906
s(S'0.3'
p2470
g18
S'0.1'
p2471
g18
S'0.0'
p2472
tp2473
I816
s(S'0.05'
p2474
g18
S'0.45'
p2475
g18
S'-0.1'
p2476
tp2477
I206
s(S'0.15'
p2478
g18
S'0.35'
p2479
g18
S'0.05'
p2480
tp2481
I472
s(S'0.25'
p2482
g18
S'0.35'
p2483
g18
S'0.2'
p2484
tp2485
I768
s(S'0.25'
p2486
g18
S'0.2'
p2487
g18
S'0.25'
p2488
tp2489
I731
s(S'0.3'
p2490
g18
S'0.1'
p2491
g18
S'0.3'
p2492
tp2493
I822
s(S'0.15'
p2494
g18
S'0.5'
p2495
g18
S'0.0'
p2496
tp2497
I508
s(S'0.4'
p2498
g18
S'0.15'
p2499
g18
S'0.0'
p2500
tp2501
I951
s(S'-0.0'
p2502
g18
S'0.15'
p2503
g18
S'0.3'
p2504
tp2505
I10
s(S'0.3'
p2506
g18
S'0.05'
p2507
g18
S'-0.05'
p2508
tp2509
I805
s(S'0.15'
p2510
g18
S'0.25'
p2511
g18
S'-0.25'
p2512
tp2513
I436
s(S'0.1'
p2514
g18
S'0.25'
p2515
g18
S'-0.0'
p2516
tp2517
I279
s(S'-0.0'
p2518
g18
S'0.35'
p2519
g18
S'-0.25'
p2520
tp2521
I52
s(S'0.15'
p2522
g18
S'0.4'
p2523
g18
S'0.0'
p2524
tp2525
I485
s(S'0.15'
p2526
g18
S'0.35'
p2527
g18
S'0.1'
p2528
tp2529
I473
s(S'0.4'
p2530
g18
S'0.3'
p2531
g18
S'0.05'
p2532
tp2533
I961
s(S'0.3'
p2534
g18
S'0.1'
p2535
g18
S'0.25'
p2536
tp2537
I821
s(S'0.0'
p2538
g18
S'0.45'
p2539
g18
S'0.1'
p2540
tp2541
I88
s(S'0.2'
p2542
g18
S'0.4'
p2543
g18
S'0.15'
p2544
tp2545
I644
s(S'0.2'
p2546
g18
S'0.4'
p2547
g18
S'0.0'
p2548
tp2549
I641
s(S'0.0'
p2550
g18
S'0.55'
p2551
g18
S'0.0'
p2552
tp2553
I108
s(S'0.2'
p2554
g18
S'0.05'
p2555
g18
S'-0.1'
p2556
tp2557
I542
s(S'0.1'
p2558
g18
S'0.2'
p2559
g18
S'0.35'
p2560
tp2561
I271
s(S'0.3'
p2562
g18
S'0.15'
p2563
g18
S'-0.15'
p2564
tp2565
I824
s(S'0.25'
p2566
g18
S'0.45'
p2567
g18
S'0.2'
p2568
tp2569
I789
s(S'0.25'
p2570
g18
S'0.5'
p2571
g18
S'0.2'
p2572
tp2573
I797
s(S'0.25'
p2574
g18
S'0.4'
p2575
g18
S'0.15'
p2576
tp2577
I778
s(S'0.05'
p2578
g18
S'0.6'
p2579
g18
S'0.0'
p2580
tp2581
I237
s(S'0.25'
p2582
g18
S'0.25'
p2583
g18
S'-0.1'
p2584
tp2585
I737
s(S'0.35'
p2586
g18
S'0.1'
p2587
g18
S'-0.1'
p2588
tp2589
I897
s(S'0.15'
p2590
g18
S'0.15'
p2591
g18
S'0.4'
p2592
tp2593
I419
s(S'0.05'
p2594
g18
S'0.3'
p2595
g18
S'0.4'
p2596
tp2597
I172
s(S'0.4'
p2598
g18
S'0.2'
p2599
g18
S'-0.05'
p2600
tp2601
I954
s(S'0.35'
p2602
g18
S'0.35'
p2603
g18
S'0.15'
p2604
tp2605
I944
s(S'0.35'
p2606
g18
S'0.1'
p2607
g18
S'0.2'
p2608
tp2609
I903
s(S'0.15'
p2610
g18
S'0.5'
p2611
g18
S'0.15'
p2612
tp2613
I511
s(S'0.25'
p2614
g18
S'0.1'
p2615
g18
S'0.1'
p2616
tp2617
I702
s(S'0.25'
p2618
g18
S'0.0'
p2619
g18
S'0.25'
p2620
tp2621
I683
s(S'-0.0'
p2622
g18
S'0.35'
p2623
g18
S'0.25'
p2624
tp2625
I62
s(S'0.2'
p2626
g18
S'0.4'
p2627
g18
S'0.05'
p2628
tp2629
I642
s(S'0.15'
p2630
g18
S'0.25'
p2631
g18
S'0.0'
p2632
tp2633
I441
s(S'0.2'
p2634
g18
S'0.35'
p2635
g18
S'-0.1'
p2636
tp2637
I626
s(S'0.4'
p2638
g18
S'0.15'
p2639
g18
S'0.1'
p2640
tp2641
I953
s(S'0.1'
p2642
g18
S'0.4'
p2643
g18
S'0.2'
p2644
tp2645
I327
s(S'0.3'
p2646
g18
S'0.3'
p2647
g18
S'0.25'
p2648
tp2649
I865
s(S'0.25'
p2650
g18
S'0.3'
p2651
g18
S'-0.2'
p2652
tp2653
I748
s(S'0.3'
p2654
g18
S'0.4'
p2655
g18
S'0.1'
p2656
tp2657
I881
s(S'0.15'
p2658
g18
S'0.3'
p2659
g18
S'-0.1'
p2660
tp2661
I454
s(S'0.05'
p2662
g18
S'0.15'
p2663
g18
S'0.2'
p2664
tp2665
I127
s(S'0.05'
p2666
g18
S'0.2'
p2667
g18
S'0.15'
p2668
tp2669
I138
s(S'0.15'
p2670
g18
S'0.3'
p2671
g18
S'0.3'
p2672
tp2673
I462
s(S'0.05'
p2674
g18
S'0.4'
p2675
g18
S'0.35'
p2676
tp2677
I201
s(S'0.25'
p2678
g18
S'0.15'
p2679
g18
S'0.2'
p2680
tp2681
I717
s(S'0.1'
p2682
g18
S'0.25'
p2683
g18
S'-0.25'
p2684
tp2685
I274
s(S'0.15'
p2686
g18
S'0.55'
p2687
g18
S'-0.05'
p2688
tp2689
I515
s(S'0.35'
p2690
g18
S'0.15'
p2691
g18
S'0.05'
p2692
tp2693
I908
s(S'0.1'
p2694
g18
S'0.4'
p2695
g18
S'0.35'
p2696
tp2697
I330
s(S'0.25'
p2698
g18
S'0.4'
p2699
g18
S'0.3'
p2700
tp2701
I781
s(S'0.05'
p2702
g18
S'0.5'
p2703
g18
S'0.3'
p2704
tp2705
I226
s(S'0.15'
p2706
g18
S'0.05'
p2707
g18
S'0.05'
p2708
tp2709
I383
s(S'0.05'
p2710
g18
S'0.5'
p2711
g18
S'-0.2'
p2712
tp2713
I216
s(S'0.0'
p2714
g18
S'0.55'
p2715
g18
S'0.05'
p2716
tp2717
I109
s(S'0.05'
p2718
g18
S'0.25'
p2719
g18
S'0.45'
p2720
tp2721
I158
s(S'0.2'
p2722
g18
S'0.35'
p2723
g18
S'0.35'
p2724
tp2725
I635
s(S'0.2'
p2726
g18
S'0.25'
p2727
g18
S'-0.3'
p2728
tp2729
I595
s(S'0.2'
p2730
g18
S'0.0'
p2731
g18
S'0.15'
p2732
tp2733
I535
s(S'0.25'
p2734
g18
S'0.0'
p2735
g18
S'0.0'
p2736
tp2737
I678
s(S'0.05'
p2738
g18
S'0.45'
p2739
g18
S'0.2'
p2740
tp2741
I212
s(S'0.3'
p2742
g18
S'0.4'
p2743
g18
S'0.25'
p2744
tp2745
I884
s(S'0.1'
p2746
g18
S'0.4'
p2747
g18
S'0.15'
p2748
tp2749
I326
s(S'0.05'
p2750
g18
S'0.2'
p2751
g18
S'-0.1'
p2752
tp2753
I137
s(S'0.05'
p2754
g18
S'0.45'
p2755
g18
S'0.35'
p2756
tp2757
I215
s(S'0.1'
p2758
g18
S'0.35'
p2759
g18
S'-0.2'
p2760
tp2761
I304
s(S'0.1'
p2762
g18
S'0.5'
p2763
g18
S'0.15'
p2764
tp2765
I351
s(S'0.1'
p2766
g18
S'0.15'
p2767
g18
S'-0.2'
p2768
tp2769
I252
s(S'-0.0'
p2770
g18
S'0.2'
p2771
g18
S'-0.25'
p2772
tp2773
I15
s(S'0.05'
p2774
g18
S'0.2'
p2775
g18
S'-0.3'
p2776
tp2777
I133
s(S'0.1'
p2778
g18
S'0.55'
p2779
g18
S'0.1'
p2780
tp2781
I360
s(S'0.15'
p2782
g18
S'0.5'
p2783
g18
S'0.2'
p2784
tp2785
I512
s(S'0.1'
p2786
g18
S'0.5'
p2787
g18
S'0.3'
p2788
tp2789
I354
s(S'0.25'
p2790
g18
S'0.3'
p2791
g18
S'0.2'
p2792
tp2793
I756
s(S'0.2'
p2794
g18
S'-0.05'
p2795
g18
S'-0.05'
p2796
tp2797
I522
s(S'0.1'
p2798
g18
S'0.25'
p2799
g18
S'-0.2'
p2800
tp2801
I275
s(S'0.2'
p2802
g18
S'0.55'
p2803
g18
S'0.1'
p2804
tp2805
I672
s(S'0.25'
p2806
g18
S'0.2'
p2807
g18
S'-0.25'
p2808
tp2809
I721
s(S'0.15'
p2810
g18
S'0.4'
p2811
g18
S'0.2'
p2812
tp2813
I489
s(S'0.1'
p2814
g18
S'0.45'
p2815
g18
S'-0.1'
p2816
tp2817
I334
s(S'0.15'
p2818
g18
S'0.1'
p2819
g18
S'-0.3'
p2820
tp2821
I390
s(S'0.05'
p2822
g18
S'0.1'
p2823
g18
S'0.25'
p2824
tp2825
I122
s(S'0.3'
p2826
g18
S'0.35'
p2827
g18
S'0.15'
p2828
tp2829
I873
s(S'0.25'
p2830
g18
S'0.45'
p2831
g18
S'-0.15'
p2832
tp2833
I782
s(S'0.25'
p2834
g18
S'0.1'
p2835
g18
S'0.25'
p2836
tp2837
I705
s(S'0.3'
p2838
g18
S'0.35'
p2839
g18
S'0.05'
p2840
tp2841
I871
s(S'0.35'
p2842
g18
S'0.2'
p2843
g18
S'-0.05'
p2844
tp2845
I915
s(S'0.0'
p2846
g18
S'0.55'
p2847
g18
S'0.2'
p2848
tp2849
I112
s(S'0.2'
p2850
g18
S'0.35'
p2851
g18
S'0.3'
p2852
tp2853
I634
s(S'0.1'
p2854
g18
S'0.35'
p2855
g18
S'0.4'
p2856
tp2857
I316
s(S'0.0'
p2858
g18
S'0.3'
p2859
g18
S'-0.2'
p2860
tp2861
I41
s(S'-0.0'
p2862
g18
S'0.2'
p2863
g18
S'-0.1'
p2864
tp2865
I18
s(S'0.35'
p2866
g18
S'0.2'
p2867
g18
S'0.2'
p2868
tp2869
I920
s(S'0.05'
p2870
g18
S'0.15'
p2871
g18
S'0.15'
p2872
tp2873
I126
s(S'0.35'
p2874
g18
S'0.25'
p2875
g18
S'-0.1'
p2876
tp2877
I923
s(S'0.3'
p2878
g18
S'0.2'
p2879
g18
S'0.3'
p2880
tp2881
I844
s(S'0.2'
p2882
g18
S'0.1'
p2883
g18
S'0.25'
p2884
tp2885
I562
s(S'-0.0'
p2886
g18
S'0.45'
p2887
g18
S'0.05'
p2888
tp2889
I87
s(S'0.25'
p2890
g18
S'0.25'
p2891
g18
S'0.05'
p2892
tp2893
I740
s(S'0.15'
p2894
g18
S'0.4'
p2895
g18
S'0.3'
p2896
tp2897
I491
s(S'0.05'
p2898
g18
S'0.55'
p2899
g18
S'0.05'
p2900
tp2901
I231
s(S'0.15'
p2902
g18
S'0.45'
p2903
g18
S'-0.1'
p2904
tp2905
I495
s(S'0.05'
p2906
g18
S'0.15'
p2907
g18
S'0.25'
p2908
tp2909
I128
s(S'0.05'
p2910
g18
S'0.25'
p2911
g18
S'0.3'
p2912
tp2913
I155
s(S'0.35'
p2914
g18
S'0.1'
p2915
g18
S'0.0'
p2916
tp2917
I899
s(S'0.0'
p2918
g18
S'0.4'
p2919
g18
S'0.15'
p2920
tp2921
I75
s(S'0.25'
p2922
g18
S'0.1'
p2923
g18
S'0.3'
p2924
tp2925
I706
s(S'0.3'
p2926
g18
S'0.05'
p2927
g18
S'0.15'
p2928
tp2929
I809
s(S'0.1'
p2930
g18
S'0.45'
p2931
g18
S'-0.05'
p2932
tp2933
I335
s(S'0.2'
p2934
g18
S'0.35'
p2935
g18
S'-0.05'
p2936
tp2937
I627
s(S'0.1'
p2938
g18
S'0.2'
p2939
g18
S'-0.2'
p2940
tp2941
I261
s(S'0.15'
p2942
g18
S'0.2'
p2943
g18
S'-0.05'
p2944
tp2945
I425
s(S'0.1'
p2946
g18
S'0.45'
p2947
g18
S'-0.15'
p2948
tp2949
I333
s(S'0.15'
p2950
g18
S'0.25'
p2951
g18
S'0.2'
p2952
tp2953
I445
s(S'0.25'
p2954
g18
S'-0.05'
p2955
g18
S'0.05'
p2956
tp2957
I674
s(S'0.25'
p2958
g18
S'0.5'
p2959
g18
S'0.15'
p2960
tp2961
I796
s(S'0.25'
p2962
g18
S'0.5'
p2963
g18
S'-0.05'
p2964
tp2965
I792
s(S'0.25'
p2966
g18
S'0.35'
p2967
g18
S'0.15'
p2968
tp2969
I767
s(S'0.2'
p2970
g18
S'0.1'
p2971
g18
S'-0.15'
p2972
tp2973
I554
s(S'0.25'
p2974
g18
S'0.2'
p2975
g18
S'0.3'
p2976
tp2977
I732
s(S'0.15'
p2978
g18
S'0.05'
p2979
g18
S'0.3'
p2980
tp2981
I388
s(S'0.05'
p2982
g18
S'0.4'
p2983
g18
S'0.25'
p2984
tp2985
I199
s(S'0.2'
p2986
g18
S'0.5'
p2987
g18
S'0.0'
p2988
tp2989
I663
s(S'-0.0'
p2990
g18
S'0.4'
p2991
g18
S'0.2'
p2992
tp2993
I76
s(S'0.0'
p2994
g18
S'0.6'
p2995
g18
S'0.05'
p2996
tp2997
I116
s(S'0.15'
p2998
g18
S'0.05'
p2999
g18
S'-0.2'
p3000
tp3001
I378
s(S'0.1'
p3002
g18
S'0.3'
p3003
g18
S'0.3'
p3004
tp3005
I299
s(S'0.35'
p3006
g18
S'0.25'
p3007
g18
S'-0.15'
p3008
tp3009
I922
s(S'0.35'
p3010
g18
S'0.25'
p3011
g18
S'0.1'
p3012
tp3013
I927
s(S'0.15'
p3014
g18
S'0.15'
p3015
g18
S'0.05'
p3016
tp3017
I412
s(S'0.05'
p3018
g18
S'0.5'
p3019
g18
S'0.1'
p3020
tp3021
I222
s(S'0.05'
p3022
g18
S'0.35'
p3023
g18
S'0.1'
p3024
tp3025
I181
s(S'0.25'
p3026
g18
S'0.05'
p3027
g18
S'0.3'
p3028
tp3029
I694
s(S'0.05'
p3030
g18
S'0.3'
p3031
g18
S'-0.05'
p3032
tp3033
I164
s(S'0.1'
p3034
g18
S'0.25'
p3035
g18
S'0.25'
p3036
tp3037
I283
s(S'0.0'
p3038
g18
S'0.45'
p3039
g18
S'-0.15'
p3040
tp3041
I83
s(S'0.25'
p3042
g18
S'0.2'
p3043
g18
S'0.05'
p3044
tp3045
I727
s(S'0.2'
p3046
g18
S'0.0'
p3047
g18
S'0.25'
p3048
tp3049
I537
s(S'0.15'
p3050
g18
S'0.15'
p3051
g18
S'0.35'
p3052
tp3053
I418
s(S'0.1'
p3054
g18
S'0.2'
p3055
g18
S'0.15'
p3056
tp3057
I267
s(S'0.25'
p3058
g18
S'0.0'
p3059
g18
S'0.2'
p3060
tp3061
I682
s(S'0.2'
p3062
g18
S'0.15'
p3063
g18
S'0.25'
p3064
tp3065
I576
s(S'0.05'
p3066
g18
S'0.4'
p3067
g18
S'0.1'
p3068
tp3069
I196
s(S'0.25'
p3070
g18
S'0.1'
p3071
g18
S'-0.1'
p3072
tp3073
I698
s(S'0.05'
p3074
g18
S'0.55'
p3075
g18
S'-0.1'
p3076
tp3077
I228
s(S'0.15'
p3078
g18
S'0.1'
p3079
g18
S'-0.2'
p3080
tp3081
I392
s(S'0.15'
p3082
g18
S'-0.0'
p3083
g18
S'-0.05'
p3084
tp3085
I369
s(S'0.15'
p3086
g18
S'0.45'
p3087
g18
S'0.3'
p3088
tp3089
I503
s(S'0.35'
p3090
g18
S'0.25'
p3091
g18
S'-0.05'
p3092
tp3093
I924
s(S'0.1'
p3094
g18
S'0.4'
p3095
g18
S'-0.25'
p3096
tp3097
I318
s(S'0.2'
p3098
g18
S'0.45'
p3099
g18
S'0.15'
p3100
tp3101
I656
s(S'0.25'
p3102
g18
S'0.3'
p3103
g18
S'0.0'
p3104
tp3105
I752
s(S'0.3'
p3106
g18
S'0.05'
p3107
g18
S'0.0'
p3108
tp3109
I806
s(S'0.15'
p3110
g18
S'0.45'
p3111
g18
S'0.15'
p3112
tp3113
I500
s(S'0.05'
p3114
g18
S'0.5'
p3115
g18
S'0.25'
p3116
tp3117
I225
s(S'0.2'
p3118
g18
S'0.5'
p3119
g18
S'-0.05'
p3120
tp3121
I662
s(S'-0.0'
p3122
g18
S'0.2'
p3123
g18
S'0.25'
p3124
tp3125
I20
s(S'0.1'
p3126
g18
S'0.15'
p3127
g18
S'0.3'
p3128
tp3129
I256
s(S'0.2'
p3130
g18
S'0.45'
p3131
g18
S'0.05'
p3132
tp3133
I654
s(S'0.2'
p3134
g18
S'0.55'
p3135
g18
S'-0.05'
p3136
tp3137
I669
s(S'0.35'
p3138
g18
S'0.2'
p3139
g18
S'0.15'
p3140
tp3141
I919
s(S'0.15'
p3142
g18
S'0.15'
p3143
g18
S'-0.1'
p3144
tp3145
I409
s(S'0.25'
p3146
g18
S'0.3'
p3147
g18
S'0.1'
p3148
tp3149
I754
s(S'0.25'
p3150
g18
S'0.2'
p3151
g18
S'-0.05'
p3152
tp3153
I725
s(S'0.15'
p3154
g18
S'0.05'
p3155
g18
S'0.2'
p3156
tp3157
I386
s(S'0.25'
p3158
g18
S'0.4'
p3159
g18
S'-0.05'
p3160
tp3161
I774
s(S'0.35'
p3162
g18
S'0.3'
p3163
g18
S'-0.1'
p3164
tp3165
I932
s(S'-0.0'
p3166
g18
S'0.35'
p3167
g18
S'0.3'
p3168
tp3169
I63
s(S'0.15'
p3170
g18
S'0.05'
p3171
g18
S'-0.05'
p3172
tp3173
I381
s(S'0.3'
p3174
g18
S'0.4'
p3175
g18
S'-0.15'
p3176
tp3177
I876
s(S'0.3'
p3178
g18
S'0.3'
p3179
g18
S'0.3'
p3180
tp3181
I866
s(S'0.15'
p3182
g18
S'0.1'
p3183
g18
S'0.3'
p3184
tp3185
I402
s(S'0.05'
p3186
g18
S'0.35'
p3187
g18
S'-0.1'
p3188
tp3189
I177
s(S'0.0'
p3190
g18
S'0.5'
p3191
g18
S'0.3'
p3192
tp3193
I104
s(S'0.1'
p3194
g18
S'0.35'
p3195
g18
S'-0.05'
p3196
tp3197
I307
s(S'0.3'
p3198
g18
S'0.1'
p3199
g18
S'0.05'
p3200
tp3201
I817
s(S'0.25'
p3202
g18
S'0.0'
p3203
g18
S'-0.1'
p3204
tp3205
I676
s(S'-0.0'
p3206
g18
S'0.25'
p3207
g18
S'0.2'
p3208
tp3209
I33
s(S'0.05'
p3210
g18
S'0.4'
p3211
g18
S'-0.3'
p3212
tp3213
I188
s(S'0.3'
p3214
g18
S'0.2'
p3215
g18
S'0.1'
p3216
tp3217
I840
s(S'0.0'
p3218
g18
S'0.45'
p3219
g18
S'-0.1'
p3220
tp3221
I84
s(S'0.15'
p3222
g18
S'0.4'
p3223
g18
S'-0.2'
p3224
tp3225
I481
s(S'0.2'
p3226
g18
S'0.3'
p3227
g18
S'0.1'
p3228
tp3229
I617
s(S'0.1'
p3230
g18
S'0.35'
p3231
g18
S'-0.15'
p3232
tp3233
I305
s(S'0.1'
p3234
g18
S'0.25'
p3235
g18
S'0.2'
p3236
tp3237
I282
s(S'0.1'
p3238
g18
S'0.1'
p3239
g18
S'0.15'
p3240
tp3241
I244
s(S'0.15'
p3242
g18
S'0.05'
p3243
g18
S'0.1'
p3244
tp3245
I384
s(S'0.35'
p3246
g18
S'0.4'
p3247
g18
S'0.0'
p3248
tp3249
I947
s(S'0.3'
p3250
g18
S'0.15'
p3251
g18
S'-0.2'
p3252
tp3253
I823
s(S'0.3'
p3254
g18
S'0.2'
p3255
g18
S'0.0'
p3256
tp3257
I838
s(S'0.25'
p3258
g18
S'0.0'
p3259
g18
S'0.05'
p3260
tp3261
I679
s(S'0.15'
p3262
g18
S'0.3'
p3263
g18
S'0.4'
p3264
tp3265
I464
s(S'0.2'
p3266
g18
S'0.15'
p3267
g18
S'-0.2'
p3268
tp3269
I567
s(S'0.15'
p3270
g18
S'0.35'
p3271
g18
S'-0.25'
p3272
tp3273
I466
s(S'0.1'
p3274
g18
S'0.3'
p3275
g18
S'0.1'
p3276
tp3277
I295
s(S'0.15'
p3278
g18
S'0.55'
p3279
g18
S'0.0'
p3280
tp3281
I516
s(S'0.1'
p3282
g18
S'0.25'
p3283
g18
S'0.35'
p3284
tp3285
I285
s(S'0.1'
p3286
g18
S'0.3'
p3287
g18
S'0.35'
p3288
tp3289
I300
s(S'0.3'
p3290
g18
S'0.4'
p3291
g18
S'0.05'
p3292
tp3293
I880
s(S'0.05'
p3294
g18
S'0.35'
p3295
g18
S'0.3'
p3296
tp3297
I185
s(S'0.25'
p3298
g18
S'0.05'
p3299
g18
S'0.1'
p3300
tp3301
I690
s(S'-0.0'
p3302
g18
S'0.15'
p3303
g18
S'0.25'
p3304
tp3305
I9
s(S'0.25'
p3306
g18
S'0.4'
p3307
g18
S'-0.2'
p3308
tp3309
I771
s(S'0.05'
p3310
g18
S'0.25'
p3311
g18
S'-0.1'
p3312
tp3313
I150
s(S'0.35'
p3314
g18
S'0.3'
p3315
g18
S'0.1'
p3316
tp3317
I936
s(S'0.05'
p3318
g18
S'0.2'
p3319
g18
S'0.45'
p3320
tp3321
I144
s(S'0.05'
p3322
g18
S'0.45'
p3323
g18
S'0.0'
p3324
tp3325
I208
s(S'0.15'
p3326
g18
S'0.05'
p3327
g18
S'0.25'
p3328
tp3329
I387
s(S'0.25'
p3330
g18
S'0.2'
p3331
g18
S'0.35'
p3332
tp3333
I733
s(S'0.4'
p3334
g18
S'0.25'
p3335
g18
S'0.0'
p3336
tp3337
I958
s(S'0.2'
p3338
g18
S'0.45'
p3339
g18
S'0.1'
p3340
tp3341
I655
s(S'0.25'
p3342
g18
S'0.3'
p3343
g18
S'0.25'
p3344
tp3345
I757
s(S'0.2'
p3346
g18
S'0.35'
p3347
g18
S'0.15'
p3348
tp3349
I631
s(S'0.2'
p3350
g18
S'0.3'
p3351
g18
S'-0.25'
p3352
tp3353
I610
s(S'0.15'
p3354
g18
S'0.45'
p3355
g18
S'0.1'
p3356
tp3357
I499
s(S'0.15'
p3358
g18
S'0.15'
p3359
g18
S'-0.15'
p3360
tp3361
I408
s(S'0.1'
p3362
g18
S'0.35'
p3363
g18
S'0.3'
p3364
tp3365
I314
s(S'0.0'
p3366
g18
S'0.25'
p3367
g18
S'-0.3'
p3368
tp3369
I26
s(S'0.1'
p3370
g18
S'0.4'
p3371
g18
S'-0.2'
p3372
tp3373
I319
s(S'0.3'
p3374
g18
S'0.35'
p3375
g18
S'-0.05'
p3376
tp3377
I869
s(S'0.05'
p3378
g18
S'0.45'
p3379
g18
S'-0.15'
p3380
tp3381
I205
s(S'0.3'
p3382
g18
S'0.1'
p3383
g18
S'-0.15'
p3384
tp3385
I813
s(S'0.35'
p3386
g18
S'0.1'
p3387
g18
S'0.05'
p3388
tp3389
I900
s(S'0.15'
p3390
g18
S'0.35'
p3391
g18
S'0.3'
p3392
tp3393
I477
s(S'0.1'
p3394
g18
S'0.35'
p3395
g18
S'0.05'
p3396
tp3397
I309
s(S'0.0'
p3398
g18
S'0.6'
p3399
g18
S'-0.05'
p3400
tp3401
I114
s(S'0.35'
p3402
g18
S'0.3'
p3403
g18
S'-0.05'
p3404
tp3405
I933
s(S'0.3'
p3406
g18
S'0.15'
p3407
g18
S'0.2'
p3408
tp3409
I831
s(S'0.25'
p3410
g18
S'0.05'
p3411
g18
S'0.0'
p3412
tp3413
I688
s(S'0.1'
p3414
g18
S'0.55'
p3415
g18
S'0.15'
p3416
tp3417
I361
s(S'0.25'
p3418
g18
S'0.25'
p3419
g18
S'0.15'
p3420
tp3421
I742
s(S'-0.0'
p3422
g18
S'0.35'
p3423
g18
S'0.1'
p3424
tp3425
I59
s(S'0.25'
p3426
g18
S'0.15'
p3427
g18
S'0.05'
p3428
tp3429
I714
s(S'0.0'
p3430
g18
S'0.55'
p3431
g18
S'-0.15'
p3432
tp3433
I105
s(S'0.15'
p3434
g18
S'0.55'
p3435
g18
S'0.05'
p3436
tp3437
I517
s(S'0.2'
p3438
g18
S'0.05'
p3439
g18
S'0.1'
p3440
tp3441
I546
s(S'0.25'
p3442
g18
S'0.45'
p3443
g18
S'0.0'
p3444
tp3445
I785
s(S'0.25'
p3446
g18
S'0.4'
p3447
g18
S'-0.1'
p3448
tp3449
I773
s(S'0.05'
p3450
g18
S'0.1'
p3451
g18
S'0.3'
p3452
tp3453
I123
s(S'0.15'
p3454
g18
S'0.3'
p3455
g18
S'0.0'
p3456
tp3457
I456
s(S'0.15'
p3458
g18
S'0.15'
p3459
g18
S'0.2'
p3460
tp3461
I415
s(S'0.3'
p3462
g18
S'0.45'
p3463
g18
S'-0.05'
p3464
tp3465
I886
s(S'0.15'
p3466
g18
S'0.1'
p3467
g18
S'0.4'
p3468
tp3469
I404
s(S'0.2'
p3470
g18
S'0.3'
p3471
g18
S'0.0'
p3472
tp3473
I615
s(S'0.3'
p3474
g18
S'0.45'
p3475
g18
S'0.15'
p3476
tp3477
I890
s(S'0.25'
p3478
g18
S'0.15'
p3479
g18
S'0.25'
p3480
tp3481
I718
s(S'0.05'
p3482
g18
S'0.2'
p3483
g18
S'0.3'
p3484
tp3485
I141
s(S'0.3'
p3486
g18
S'0.1'
p3487
g18
S'-0.2'
p3488
tp3489
I812
s(S'0.2'
p3490
g18
S'-0.05'
p3491
g18
S'0.15'
p3492
tp3493
I526
s(S'0.25'
p3494
g18
S'0.35'
p3495
g18
S'0.05'
p3496
tp3497
I765
s(S'0.3'
p3498
g18
S'0.0'
p3499
g18
S'0.1'
p3500
tp3501
I801
s(S'0.1'
p3502
g18
S'0.5'
p3503
g18
S'0.1'
p3504
tp3505
I350
s(S'0.15'
p3506
g18
S'0.2'
p3507
g18
S'-0.3'
p3508
tp3509
I420
s(S'0.1'
p3510
g18
S'0.25'
p3511
g18
S'0.4'
p3512
tp3513
I286
s(S'0.1'
p3514
g18
S'0.4'
p3515
g18
S'-0.05'
p3516
tp3517
I322
s(S'0.2'
p3518
g18
S'-0.05'
p3519
g18
S'-0.0'
p3520
tp3521
I523
s(S'0.15'
p3522
g18
S'0.3'
p3523
g18
S'0.05'
p3524
tp3525
I457
s(S'0.3'
p3526
g18
S'0.2'
p3527
g18
S'0.2'
p3528
tp3529
I842
s(S'0.3'
p3530
g18
S'0.35'
p3531
g18
S'-0.15'
p3532
tp3533
I867
s(S'0.35'
p3534
g18
S'0.2'
p3535
g18
S'0.1'
p3536
tp3537
I918
s(S'0.25'
p3538
g18
S'0.15'
p3539
g18
S'-0.05'
p3540
tp3541
I712
s(S'-0.0'
p3542
g18
S'0.1'
p3543
g18
S'0.3'
p3544
tp3545
I4
s(S'0.15'
p3546
g18
S'0.55'
p3547
g18
S'0.2'
p3548
tp3549
I520
s(S'0.2'
p3550
g18
S'0.15'
p3551
g18
S'0.05'
p3552
tp3553
I572
s(S'0.1'
p3554
g18
S'0.3'
p3555
g18
S'0.15'
p3556
tp3557
I296
s(S'0.3'
p3558
g18
S'0.3'
p3559
g18
S'-0.2'
p3560
tp3561
I856
s(S'0.3'
p3562
g18
S'0.2'
p3563
g18
S'-0.2'
p3564
tp3565
I834
s(S'-0.0'
p3566
g18
S'0.35'
p3567
g18
S'0.35'
p3568
tp3569
I64
s(S'0.15'
p3570
g18
S'0.35'
p3571
g18
S'0.25'
p3572
tp3573
I476
s(S'0.15'
p3574
g18
S'0.0'
p3575
g18
S'0.05'
p3576
tp3577
I371
s(S'-0.0'
p3578
g18
S'0.4'
p3579
g18
S'-0.15'
p3580
tp3581
I69
s(S'0.35'
p3582
g18
S'0.2'
p3583
g18
S'0.05'
p3584
tp3585
I917
s(S'0.3'
p3586
g18
S'0.2'
p3587
g18
S'-0.15'
p3588
tp3589
I835
s(S'0.2'
p3590
g18
S'0.2'
p3591
g18
S'-0.15'
p3592
tp3593
I583
s(S'-0.0'
p3594
g18
S'0.5'
p3595
g18
S'0.05'
p3596
tp3597
I99
s(S'0.15'
p3598
g18
S'0.25'
p3599
g18
S'-0.05'
p3600
tp3601
I440
s(S'0.0'
p3602
g18
S'0.2'
p3603
g18
S'-0.3'
p3604
tp3605
I14
s(S'0.25'
p3606
g18
S'0.35'
p3607
g18
S'0.1'
p3608
tp3609
I766
s(S'0.35'
p3610
g18
S'0.15'
p3611
g18
S'-0.1'
p3612
tp3613
I905
s(S'0.15'
p3614
g18
S'0.15'
p3615
g18
S'-0.0'
p3616
tp3617
I411
s(S'0.35'
p3618
g18
S'0.2'
p3619
g18
S'0.25'
p3620
tp3621
I921
s(S'0.35'
p3622
g18
S'0.15'
p3623
g18
S'-0.15'
p3624
tp3625
I904
s(S'0.2'
p3626
g18
S'0.35'
p3627
g18
S'0.1'
p3628
tp3629
I630
s(S'0.25'
p3630
g18
S'0.3'
p3631
g18
S'-0.05'
p3632
tp3633
I751
s(S'0.3'
p3634
g18
S'0.45'
p3635
g18
S'-0.1'
p3636
tp3637
I885
s(S'0.2'
p3638
g18
S'0.3'
p3639
g18
S'0.25'
p3640
tp3641
I620
s(S'0.3'
p3642
g18
S'0.45'
p3643
g18
S'0.0'
p3644
tp3645
I887
s(S'0.3'
p3646
g18
S'0.25'
p3647
g18
S'0.1'
p3648
tp3649
I851
s(S'0.3'
p3650
g18
S'0.45'
p3651
g18
S'0.05'
p3652
tp3653
I888
s(S'-0.0'
p3654
g18
S'0.15'
p3655
g18
S'0.45'
p3656
tp3657
I13
s(S'0.2'
p3658
g18
S'0.45'
p3659
g18
S'0.0'
p3660
tp3661
I653
s(S'-0.0'
p3662
g18
S'0.45'
p3663
g18
S'-0.25'
p3664
tp3665
I81
s(S'0.2'
p3666
g18
S'0.15'
p3667
g18
S'0.2'
p3668
tp3669
I575
s(S'0.35'
p3670
g18
S'0.3'
p3671
g18
S'-0.15'
p3672
tp3673
I931
s(S'0.2'
p3674
g18
S'0.4'
p3675
g18
S'-0.25'
p3676
tp3677
I636
s(S'0.25'
p3678
g18
S'0.4'
p3679
g18
S'-0.15'
p3680
tp3681
I772
s(S'0.25'
p3682
g18
S'0.25'
p3683
g18
S'0.1'
p3684
tp3685
I741
s(S'0.3'
p3686
g18
S'0.15'
p3687
g18
S'0.0'
p3688
tp3689
I827
s(S'0.0'
p3690
g18
S'0.55'
p3691
g18
S'-0.05'
p3692
tp3693
I107
s(S'0.15'
p3694
g18
S'0.4'
p3695
g18
S'0.35'
p3696
tp3697
I492
s(S'0.35'
p3698
g18
S'0.25'
p3699
g18
S'0.15'
p3700
tp3701
I928
s(S'0.2'
p3702
g18
S'0.2'
p3703
g18
S'0.4'
p3704
tp3705
I594
s(S'0.25'
p3706
g18
S'0.5'
p3707
g18
S'-0.1'
p3708
tp3709
I791
s(S'0.15'
p3710
g18
S'0.05'
p3711
g18
S'-0.15'
p3712
tp3713
I379
s(S'0.35'
p3714
g18
S'0.35'
p3715
g18
S'0.0'
p3716
tp3717
I941
s(S'0.15'
p3718
g18
S'0.55'
p3719
g18
S'-0.1'
p3720
tp3721
I514
s(S'0.25'
p3722
g18
S'0.05'
p3723
g18
S'-0.1'
p3724
tp3725
I686
s(S'0.3'
p3726
g18
S'0.25'
p3727
g18
S'0.25'
p3728
tp3729
I854
s(S'0.15'
p3730
g18
S'0.25'
p3731
g18
S'-0.15'
p3732
tp3733
I438
s(S'0.2'
p3734
g18
S'0.45'
p3735
g18
S'-0.1'
p3736
tp3737
I651
s(S'0.25'
p3738
g18
S'0.35'
p3739
g18
S'-0.1'
p3740
tp3741
I762
s(S'0.4'
p3742
g18
S'0.2'
p3743
g18
S'0.0'
p3744
tp3745
I955
s(S'0.25'
p3746
g18
S'0.4'
p3747
g18
S'0.1'
p3748
tp3749
I777
s(S'-0.0'
p3750
g18
S'0.2'
p3751
g18
S'0.45'
p3752
tp3753
I24
s(S'0.35'
p3754
g18
S'0.35'
p3755
g18
S'-0.1'
p3756
tp3757
I939
s(S'0.3'
p3758
g18
S'0.4'
p3759
g18
S'0.15'
p3760
tp3761
I882
s(S'0.05'
p3762
g18
S'0.55'
p3763
g18
S'0.1'
p3764
tp3765
I232
s(S'0.2'
p3766
g18
S'-0.05'
p3767
g18
S'0.1'
p3768
tp3769
I525
s(S'0.15'
p3770
g18
S'0.2'
p3771
g18
S'0.2'
p3772
tp3773
I430
s(S'0.35'
p3774
g18
S'0.15'
p3775
g18
S'0.15'
p3776
tp3777
I910
s(S'0.15'
p3778
g18
S'0.2'
p3779
g18
S'-0.0'
p3780
tp3781
I426
s(S'0.2'
p3782
g18
S'0.4'
p3783
g18
S'-0.05'
p3784
tp3785
I640
s(S'0.15'
p3786
g18
S'0.2'
p3787
g18
S'-0.1'
p3788
tp3789
I424
s(S'0.1'
p3790
g18
S'0.2'
p3791
g18
S'-0.0'
p3792
tp3793
I265
s(S'0.25'
p3794
g18
S'0.25'
p3795
g18
S'-0.25'
p3796
tp3797
I734
s(S'0.25'
p3798
g18
S'0.2'
p3799
g18
S'0.0'
p3800
tp3801
I726
s(S'0.35'
p3802
g18
S'0.05'
p3803
g18
S'-0.05'
p3804
tp3805
I892
s(S'-0.0'
p3806
g18
S'0.4'
p3807
g18
S'-0.1'
p3808
tp3809
I70
s(S'0.2'
p3810
g18
S'0.05'
p3811
g18
S'0.3'
p3812
tp3813
I550
s(S'0.35'
p3814
g18
S'0.4'
p3815
g18
S'-0.05'
p3816
tp3817
I946
s(S'0.15'
p3818
g18
S'0.2'
p3819
g18
S'-0.25'
p3820
tp3821
I421
s(S'0.35'
p3822
g18
S'0.3'
p3823
g18
S'0.05'
p3824
tp3825
I935
s(S'0.2'
p3826
g18
S'0.1'
p3827
g18
S'0.35'
p3828
tp3829
I564
s(S'-0.0'
p3830
g18
S'0.25'
p3831
g18
S'0.25'
p3832
tp3833
I34
s(S'0.3'
p3834
g18
S'0.0'
p3835
g18
S'-0.05'
p3836
tp3837
I798
s(S'0.3'
p3838
g18
S'0.15'
p3839
g18
S'0.15'
p3840
tp3841
I830
s(S'0.25'
p3842
g18
S'0.45'
p3843
g18
S'0.1'
p3844
tp3845
I787
s(S'0.05'
p3846
g18
S'0.45'
p3847
g18
S'-0.05'
p3848
tp3849
I207
s(S'0.15'
p3850
g18
S'0.25'
p3851
g18
S'0.4'
p3852
tp3853
I449
s(S'-0.0'
p3854
g18
S'0.2'
p3855
g18
S'0.3'
p3856
tp3857
I21
s(S'-0.0'
p3858
g18
S'0.1'
p3859
g18
S'0.25'
p3860
tp3861
I3
s(S'0.25'
p3862
g18
S'0.3'
p3863
g18
S'-0.25'
p3864
tp3865
I747
ssS'r'
p3866
I0
sS'maxReachability'
p3867
I168
sS'xmax'
p3868
F0.45
sS'xmin'
p3869
F0.0
sS'ymin'
p3870
F-0.15
sS'name'
p3871
S'jaemi_left_n8_m12_awesome'
p3872
sb.