ccopy_reg
_reconstructor
p0
(cReachability
ReachabilityMapParams
p1
c__builtin__
object
p2
Ntp3
Rp4
(dp5
S'free_joint_index'
p6
NsS'b'
p7
I1
sS'zmax'
p8
F0.4
sS'ymax'
p9
F0.55
sS'g'
p10
I0
sS'free_joint_val'
p11
F0.0
sS'zmin'
p12
F-0.4
sS'indices'
p13
(dp14
(S'0.15'
p15
S','
p16
S'0.4'
p17
g16
S'-0.15'
p18
tp19
I722
s(S'0.3'
p20
g16
S'0.55'
p21
g16
S'-0.05'
p22
tp23
I1345
s(S'0.35'
p24
g16
S'0.2'
p25
g16
S'0.35'
p26
tp27
I1413
s(S'0.25'
p28
g16
S'0.3'
p29
g16
S'-0.15'
p30
tp31
I1106
s(S'0.15'
p32
g16
S'0.25'
p33
g16
S'-0.0'
p34
tp35
I674
s(S'0.05'
p36
g16
S'0.0'
p37
g16
S'0.4'
p38
tp39
I180
s(S'0.2'
p40
g16
S'-0.1'
p41
g16
S'0.0'
p42
tp43
I786
s(S'0.1'
p44
g16
S'0.15'
p45
g16
S'0.15'
p46
tp47
I416
s(S'0.15'
p48
g16
S'0.2'
p49
g16
S'-0.35'
p50
tp51
I649
s(S'0.05'
p52
g16
S'0.05'
p53
g16
S'0.4'
p54
tp55
I186
s(S'0.2'
p56
g16
S'0.55'
p57
g16
S'0.15'
p58
tp59
I983
s(S'0.3'
p60
g16
S'0.2'
p61
g16
S'-0.2'
p62
tp63
I1253
s(S'0.35'
p64
g16
S'0.4'
p65
g16
S'-0.2'
p66
tp67
I1451
s(S'0.15'
p68
g16
S'-0.05'
p69
g16
S'-0.05'
p70
tp71
I574
s(S'0.15'
p72
g16
S'-0.1'
p73
g16
S'0.1'
p74
tp75
I568
s(S'0.4'
p76
g16
S'0.15'
p77
g16
S'0.05'
p78
tp79
I1507
s(S'0.05'
p80
g16
S'0.2'
p81
g16
S'-0.4'
p82
tp83
I218
s(S'0.15'
p84
g16
S'0.4'
p85
g16
S'0.05'
p86
tp87
I726
s(S'0.1'
p88
g16
S'0.1'
p89
g16
S'-0.2'
p90
tp91
I392
s(S'-0.0'
p92
g16
S'0.6'
p93
g16
S'0.15'
p94
tp95
I175
s(S'0.2'
p96
g16
S'0.3'
p97
g16
S'0.05'
p98
tp99
I907
s(S'0.15'
p100
g16
S'0.3'
p101
g16
S'-0.35'
p102
tp103
I684
s(S'0.1'
p104
g16
S'0.05'
p105
g16
S'0.4'
p106
tp107
I387
s(S'-0.0'
p108
g16
S'0.2'
p109
g16
S'-0.05'
p110
tp111
I43
s(S'0.4'
p112
g16
S'0.05'
p113
g16
S'-0.05'
p114
tp115
I1485
s(S'-0.0'
p116
g16
S'0.25'
p117
g16
S'-0.25'
p118
tp119
I56
s(S'-0.0'
p120
g16
S'0.2'
p121
g16
S'0.1'
p122
tp123
I45
s(S'0.2'
p124
g16
S'0.1'
p125
g16
S'0.1'
p126
tp127
I840
s(S'0.35'
p128
g16
S'-0.05'
p129
g16
S'0.1'
p130
tp131
I1353
s(S'0.2'
p132
g16
S'0.1'
p133
g16
S'-0.0'
p134
tp135
I838
s(S'0.25'
p136
g16
S'0.45'
p137
g16
S'-0.25'
p138
tp139
I1149
s(S'0.4'
p140
g16
S'0.25'
p141
g16
S'-0.15'
p142
tp143
I1525
s(S'0.4'
p144
g16
S'0.05'
p145
g16
S'0.0'
p146
tp147
I1486
s(S'0.1'
p148
g16
S'0.4'
p149
g16
S'0.1'
p150
tp151
I503
s(S'0.35'
p152
g16
S'0.2'
p153
g16
S'-0.1'
p154
tp155
I1404
s(S'0.3'
p156
g16
S'0.1'
p157
g16
S'0.35'
p158
tp159
I1235
s(S'0.3'
p160
g16
S'0.2'
p161
g16
S'0.05'
p162
tp163
I1258
s(S'0.2'
p164
g16
S'-0.0'
p165
g16
S'0.25'
p166
tp167
I812
s(S'0.35'
p168
g16
S'0.4'
p169
g16
S'0.25'
p170
tp171
I1460
s(S'0.1'
p172
g16
S'0.1'
p173
g16
S'0.3'
p174
tp175
I402
s(S'0.35'
p176
g16
S'0.05'
p177
g16
S'0.25'
p178
tp179
I1373
s(S'0.05'
p180
g16
S'0.45'
p181
g16
S'-0.0'
p182
tp183
I314
s(S'0.35'
p184
g16
S'0.15'
p185
g16
S'0.05'
p186
tp187
I1394
s(S'0.25'
p188
g16
S'0.35'
p189
g16
S'0.35'
p190
tp191
I1132
s(S'0.15'
p192
g16
S'0.15'
p193
g16
S'-0.25'
p194
tp195
I633
s(S'-0.0'
p196
g16
S'0.35'
p197
g16
S'-0.05'
p198
tp199
I95
s(S'0.35'
p200
g16
S'0.5'
p201
g16
S'0.0'
p202
tp203
I1473
s(S'0.25'
p204
g16
S'0.55'
p205
g16
S'-0.15'
p206
tp207
I1174
s(S'0.25'
p208
g16
S'0.2'
p209
g16
S'0.35'
p210
tp211
I1082
s(S'0.2'
p212
g16
S'0.15'
p213
g16
S'0.35'
p214
tp215
I862
s(S'-0.0'
p216
g16
S'0.6'
p217
g16
S'0.0'
p218
tp219
I172
s(S'0.1'
p220
g16
S'0.1'
p221
g16
S'-0.35'
p222
tp223
I389
s(S'0.35'
p224
g16
S'0.15'
p225
g16
S'-0.15'
p226
tp227
I1390
s(S'-0.0'
p228
g16
S'0.6'
p229
g16
S'0.25'
p230
tp231
I177
s(S'0.25'
p232
g16
S'0.3'
p233
g16
S'-0.2'
p234
tp235
I1105
s(S'0.25'
p236
g16
S'0.15'
p237
g16
S'0.3'
p238
tp239
I1064
s(S'0.1'
p240
g16
S'0.3'
p241
g16
S'0.4'
p242
tp243
I475
s(S'0.05'
p244
g16
S'0.3'
p245
g16
S'-0.4'
p246
tp247
I254
s(S'0.45'
p248
g16
S'0.15'
p249
g16
S'-0.1'
p250
tp251
I1575
s(S'0.4'
p252
g16
S'0.35'
p253
g16
S'-0.05'
p254
tp255
I1548
s(S'0.25'
p256
g16
S'0.05'
p257
g16
S'0.4'
p258
tp259
I1035
s(S'0.1'
p260
g16
S'0.45'
p261
g16
S'0.45'
p262
tp263
I527
s(S'0.3'
p264
g16
S'0.35'
p265
g16
S'0.3'
p266
tp267
I1307
s(S'0.3'
p268
g16
S'0.1'
p269
g16
S'0.1'
p270
tp271
I1230
s(S'0.4'
p272
g16
S'0.15'
p273
g16
S'0.15'
p274
tp275
I1509
s(S'0.1'
p276
g16
S'0.5'
p277
g16
S'0.2'
p278
tp279
I538
s(S'0.35'
p280
g16
S'0.25'
p281
g16
S'0.15'
p282
tp283
I1422
s(S'0.2'
p284
g16
S'0.5'
p285
g16
S'0.3'
p286
tp287
I974
s(S'0.3'
p288
g16
S'0.55'
p289
g16
S'0.15'
p290
tp291
I1349
s(S'0.2'
p292
g16
S'0.45'
p293
g16
S'0.35'
p294
tp295
I961
s(S'0.25'
p296
g16
S'0.4'
p297
g16
S'0.05'
p298
tp299
I1141
s(S'0.3'
p300
g16
S'0.5'
p301
g16
S'0.15'
p302
tp303
I1340
s(S'0.15'
p304
g16
S'0.6'
p305
g16
S'-0.0'
p306
tp307
I778
s(S'0.0'
p308
g16
S'0.3'
p309
g16
S'-0.3'
p310
tp311
I72
s(S'0.2'
p312
g16
S'0.35'
p313
g16
S'0.25'
p314
tp315
I928
s(S'0.45'
p316
g16
S'0.35'
p317
g16
S'0.05'
p318
tp319
I1605
s(S'0.15'
p320
g16
S'0.45'
p321
g16
S'-0.2'
p322
tp323
I737
s(S'0.05'
p324
g16
S'0.25'
p325
g16
S'0.2'
p326
tp327
I248
s(S'0.35'
p328
g16
S'0.1'
p329
g16
S'0.3'
p330
tp331
I1386
s(S'0.15'
p332
g16
S'0.05'
p333
g16
S'0.35'
p334
tp335
I611
s(S'0.05'
p336
g16
S'0.05'
p337
g16
S'0.35'
p338
tp339
I185
s(S'0.35'
p340
g16
S'0.1'
p341
g16
S'0.15'
p342
tp343
I1383
s(S'0.25'
p344
g16
S'0.4'
p345
g16
S'0.3'
p346
tp347
I1146
s(S'0.3'
p348
g16
S'0.4'
p349
g16
S'0.0'
p350
tp351
I1314
s(S'0.05'
p352
g16
S'0.15'
p353
g16
S'0.1'
p354
tp355
I210
s(S'-0.0'
p356
g16
S'0.3'
p357
g16
S'0.4'
p358
tp359
I86
s(S'0.05'
p360
g16
S'0.5'
p361
g16
S'0.2'
p362
tp363
I334
s(S'0.05'
p364
g16
S'0.5'
p365
g16
S'-0.1'
p366
tp367
I328
s(S'-0.0'
p368
g16
S'0.35'
p369
g16
S'-0.4'
p370
tp371
I88
s(S'0.15'
p372
g16
S'0.35'
p373
g16
S'-0.15'
p374
tp375
I705
s(S'0.15'
p376
g16
S'0.1'
p377
g16
S'-0.1'
p378
tp379
I619
s(S'0.1'
p380
g16
S'0.15'
p381
g16
S'-0.3'
p382
tp383
I407
s(S'0.3'
p384
g16
S'0.35'
p385
g16
S'-0.25'
p386
tp387
I1296
s(S'0.05'
p388
g16
S'0.4'
p389
g16
S'-0.35'
p390
tp391
I290
s(S'0.15'
p392
g16
S'0.5'
p393
g16
S'0.3'
p394
tp395
I762
s(S'0.15'
p396
g16
S'-0.1'
p397
g16
S'0.05'
p398
tp399
I567
s(S'0.1'
p400
g16
S'0.05'
p401
g16
S'-0.25'
p402
tp403
I374
s(S'0.1'
p404
g16
S'0.4'
p405
g16
S'-0.1'
p406
tp407
I499
s(S'0.0'
p408
g16
S'0.3'
p409
g16
S'0.25'
p410
tp411
I83
s(S'0.15'
p412
g16
S'0.35'
p413
g16
S'0.4'
p414
tp415
I716
s(S'0.1'
p416
g16
S'0.6'
p417
g16
S'-0.05'
p418
tp419
I559
s(S'0.1'
p420
g16
S'0.35'
p421
g16
S'0.35'
p422
tp423
I491
s(S'0.35'
p424
g16
S'0.45'
p425
g16
S'-0.05'
p426
tp427
I1464
s(S'0.15'
p428
g16
S'-0.05'
p429
g16
S'0.3'
p430
tp431
I581
s(S'0.3'
p432
g16
S'0.3'
p433
g16
S'0.2'
p434
tp435
I1291
s(S'0.2'
p436
g16
S'0.2'
p437
g16
S'-0.25'
p438
tp439
I867
s(S'0.3'
p440
g16
S'0.55'
p441
g16
S'0.0'
p442
tp443
I1346
s(S'0.25'
p444
g16
S'0.1'
p445
g16
S'0.2'
p446
tp447
I1046
s(S'0.05'
p448
g16
S'0.4'
p449
g16
S'0.3'
p450
tp451
I303
s(S'-0.0'
p452
g16
S'0.2'
p453
g16
S'0.35'
p454
tp455
I50
s(S'0.1'
p456
g16
S'0.2'
p457
g16
S'-0.1'
p458
tp459
I429
s(S'0.15'
p460
g16
S'0.45'
p461
g16
S'0.05'
p462
tp463
I742
s(S'0.2'
p464
g16
S'-0.0'
p465
g16
S'0.2'
p466
tp467
I811
s(S'0.2'
p468
g16
S'0.25'
p469
g16
S'0.2'
p470
tp471
I893
s(S'0.4'
p472
g16
S'0.35'
p473
g16
S'0.05'
p474
tp475
I1550
s(S'0.3'
p476
g16
S'0.05'
p477
g16
S'0.25'
p478
tp479
I1219
s(S'0.35'
p480
g16
S'0.15'
p481
g16
S'-0.25'
p482
tp483
I1388
s(S'0.2'
p484
g16
S'0.2'
p485
g16
S'-0.1'
p486
tp487
I870
s(S'0.15'
p488
g16
S'0.6'
p489
g16
S'-0.15'
p490
tp491
I775
s(S'0.25'
p492
g16
S'0.4'
p493
g16
S'-0.3'
p494
tp495
I1134
s(S'0.35'
p496
g16
S'0.3'
p497
g16
S'0.0'
p498
tp499
I1432
s(S'0.0'
p500
g16
S'0.2'
p501
g16
S'-0.4'
p502
tp503
I36
s(S'0.25'
p504
g16
S'0.35'
p505
g16
S'0.4'
p506
tp507
I1133
s(S'0.15'
p508
g16
S'0.45'
p509
g16
S'0.2'
p510
tp511
I745
s(S'0.15'
p512
g16
S'0.2'
p513
g16
S'-0.15'
p514
tp515
I653
s(S'0.25'
p516
g16
S'-0.05'
p517
g16
S'0.15'
p518
tp519
I1004
s(S'0.15'
p520
g16
S'-0.0'
p521
g16
S'0.15'
p522
tp523
I591
s(S'0.35'
p524
g16
S'-0.0'
p525
g16
S'-0.0'
p526
tp527
I1358
s(S'0.2'
p528
g16
S'0.5'
p529
g16
S'0.2'
p530
tp531
I972
s(S'0.15'
p532
g16
S'0.1'
p533
g16
S'0.35'
p534
tp535
I628
s(S'-0.0'
p536
g16
S'0.35'
p537
g16
S'0.2'
p538
tp539
I100
s(S'0.4'
p540
g16
S'0.1'
p541
g16
S'0.05'
p542
tp543
I1497
s(S'0.3'
p544
g16
S'-0.0'
p545
g16
S'0.3'
p546
tp547
I1208
s(S'0.05'
p548
g16
S'0.1'
p549
g16
S'0.4'
p550
tp551
I199
s(S'0.2'
p552
g16
S'0.35'
p553
g16
S'0.05'
p554
tp555
I924
s(S'0.05'
p556
g16
S'0.3'
p557
g16
S'0.45'
p558
tp559
I271
s(S'0.15'
p560
g16
S'-0.0'
p561
g16
S'0.4'
p562
tp563
I596
s(S'0.0'
p564
g16
S'0.2'
p565
g16
S'-0.15'
p566
tp567
I41
s(S'0.1'
p568
g16
S'0.05'
p569
g16
S'0.45'
p570
tp571
I388
s(S'0.15'
p572
g16
S'-0.05'
p573
g16
S'0.25'
p574
tp575
I580
s(S'0.1'
p576
g16
S'0.3'
p577
g16
S'-0.25'
p578
tp579
I462
s(S'0.15'
p580
g16
S'0.25'
p581
g16
S'0.45'
p582
tp583
I683
s(S'0.2'
p584
g16
S'0.25'
p585
g16
S'-0.35'
p586
tp587
I882
s(S'0.2'
p588
g16
S'0.4'
p589
g16
S'-0.15'
p590
tp591
I936
s(S'0.25'
p592
g16
S'0.45'
p593
g16
S'-0.1'
p594
tp595
I1152
s(S'0.25'
p596
g16
S'0.1'
p597
g16
S'-0.2'
p598
tp599
I1038
s(S'0.05'
p600
g16
S'0.4'
p601
g16
S'-0.05'
p602
tp603
I296
s(S'0.2'
p604
g16
S'0.45'
p605
g16
S'0.2'
p606
tp607
I958
s(S'0.4'
p608
g16
S'0.2'
p609
g16
S'0.25'
p610
tp611
I1522
s(S'-0.0'
p612
g16
S'0.5'
p613
g16
S'0.2'
p614
tp615
I150
s(S'0.05'
p616
g16
S'0.45'
p617
g16
S'0.05'
p618
tp619
I315
s(S'0.3'
p620
g16
S'0.25'
p621
g16
S'0.2'
p622
tp623
I1276
s(S'0.2'
p624
g16
S'0.35'
p625
g16
S'-0.25'
p626
tp627
I918
s(S'0.15'
p628
g16
S'0.55'
p629
g16
S'-0.1'
p630
tp631
I766
s(S'0.25'
p632
g16
S'0.45'
p633
g16
S'0.05'
p634
tp635
I1155
s(S'0.3'
p636
g16
S'0.2'
p637
g16
S'-0.1'
p638
tp639
I1255
s(S'0.4'
p640
g16
S'0.35'
p641
g16
S'0.15'
p642
tp643
I1552
s(S'0.35'
p644
g16
S'0.2'
p645
g16
S'0.15'
p646
tp647
I1409
s(S'0.2'
p648
g16
S'0.55'
p649
g16
S'0.2'
p650
tp651
I984
s(S'0.05'
p652
g16
S'0.15'
p653
g16
S'-0.15'
p654
tp655
I205
s(S'0.25'
p656
g16
S'-0.0'
p657
g16
S'0.25'
p658
tp659
I1018
s(S'0.4'
p660
g16
S'0.2'
p661
g16
S'0.3'
p662
tp663
I1523
s(S'0.05'
p664
g16
S'0.25'
p665
g16
S'-0.05'
p666
tp667
I243
s(S'0.15'
p668
g16
S'0.4'
p669
g16
S'0.35'
p670
tp671
I732
s(S'0.2'
p672
g16
S'-0.05'
p673
g16
S'-0.1'
p674
tp675
I793
s(S'0.05'
p676
g16
S'0.2'
p677
g16
S'0.35'
p678
tp679
I233
s(S'0.1'
p680
g16
S'0.2'
p681
g16
S'-0.25'
p682
tp683
I426
s(S'0.3'
p684
g16
S'0.4'
p685
g16
S'-0.1'
p686
tp687
I1312
s(S'0.1'
p688
g16
S'0.25'
p689
g16
S'0.45'
p690
tp691
I458
s(S'0.05'
p692
g16
S'0.45'
p693
g16
S'-0.25'
p694
tp695
I309
s(S'0.15'
p696
g16
S'0.55'
p697
g16
S'0.15'
p698
tp699
I771
s(S'0.45'
p700
g16
S'0.1'
p701
g16
S'0.1'
p702
tp703
I1573
s(S'0.05'
p704
g16
S'0.3'
p705
g16
S'0.3'
p706
tp707
I268
s(S'0.2'
p708
g16
S'0.3'
p709
g16
S'-0.05'
p710
tp711
I905
s(S'0.25'
p712
g16
S'0.2'
p713
g16
S'-0.2'
p714
tp715
I1071
s(S'0.2'
p716
g16
S'0.1'
p717
g16
S'-0.3'
p718
tp719
I832
s(S'-0.0'
p720
g16
S'0.45'
p721
g16
S'0.15'
p722
tp723
I133
s(S'0.15'
p724
g16
S'0.5'
p725
g16
S'0.35'
p726
tp727
I763
s(S'0.1'
p728
g16
S'0.55'
p729
g16
S'-0.05'
p730
tp731
I547
s(S'0.2'
p732
g16
S'0.6'
p733
g16
S'0.05'
p734
tp735
I991
s(S'0.2'
p736
g16
S'0.55'
p737
g16
S'0.25'
p738
tp739
I985
s(S'0.1'
p740
g16
S'0.2'
p741
g16
S'0.1'
p742
tp743
I433
s(S'0.3'
p744
g16
S'0.45'
p745
g16
S'0.3'
p746
tp747
I1332
s(S'0.1'
p748
g16
S'0.4'
p749
g16
S'0.4'
p750
tp751
I509
s(S'0.45'
p752
g16
S'0.25'
p753
g16
S'-0.0'
p754
tp755
I1591
s(S'0.35'
p756
g16
S'0.3'
p757
g16
S'0.15'
p758
tp759
I1435
s(S'0.1'
p760
g16
S'0.6'
p761
g16
S'0.2'
p762
tp763
I564
s(S'0.25'
p764
g16
S'0.25'
p765
g16
S'0.2'
p766
tp767
I1096
s(S'0.3'
p768
g16
S'0.5'
p769
g16
S'0.3'
p770
tp771
I1343
s(S'0.3'
p772
g16
S'0.4'
p773
g16
S'0.15'
p774
tp775
I1317
s(S'0.05'
p776
g16
S'0.35'
p777
g16
S'-0.4'
p778
tp779
I272
s(S'0.35'
p780
g16
S'0.45'
p781
g16
S'0.2'
p782
tp783
I1469
s(S'0.1'
p784
g16
S'0.5'
p785
g16
S'0.05'
p786
tp787
I535
s(S'0.4'
p788
g16
S'-0.0'
p789
g16
S'0.0'
p790
tp791
I1480
s(S'0.3'
p792
g16
S'0.1'
p793
g16
S'-0.1'
p794
tp795
I1226
s(S'0.15'
p796
g16
S'0.5'
p797
g16
S'-0.05'
p798
tp799
I755
s(S'0.05'
p800
g16
S'0.25'
p801
g16
S'-0.15'
p802
tp803
I241
s(S'0.05'
p804
g16
S'0.35'
p805
g16
S'0.45'
p806
tp807
I289
s(S'0.35'
p808
g16
S'0.45'
p809
g16
S'-0.15'
p810
tp811
I1462
s(S'0.1'
p812
g16
S'0.55'
p813
g16
S'-0.2'
p814
tp815
I544
s(S'0.1'
p816
g16
S'0.1'
p817
g16
S'0.25'
p818
tp819
I401
s(S'0.45'
p820
g16
S'0.1'
p821
g16
S'0.05'
p822
tp823
I1572
s(S'0.2'
p824
g16
S'0.25'
p825
g16
S'-0.05'
p826
tp827
I888
s(S'0.15'
p828
g16
S'0.15'
p829
g16
S'0.45'
p830
tp831
I647
s(S'0.45'
p832
g16
S'0.15'
p833
g16
S'-0.05'
p834
tp835
I1576
s(S'0.15'
p836
g16
S'0.5'
p837
g16
S'0.05'
p838
tp839
I757
s(S'0.1'
p840
g16
S'0.45'
p841
g16
S'0.2'
p842
tp843
I522
s(S'0.45'
p844
g16
S'0.25'
p845
g16
S'0.1'
p846
tp847
I1593
s(S'0.25'
p848
g16
S'0.6'
p849
g16
S'0.0'
p850
tp851
I1185
s(S'0.2'
p852
g16
S'0.15'
p853
g16
S'0.15'
p854
tp855
I858
s(S'0.4'
p856
g16
S'0.1'
p857
g16
S'-0.2'
p858
tp859
I1492
s(S'0.1'
p860
g16
S'0.5'
p861
g16
S'-0.25'
p862
tp863
I529
s(S'0.1'
p864
g16
S'0.25'
p865
g16
S'-0.35'
p866
tp867
I442
s(S'0.25'
p868
g16
S'-0.0'
p869
g16
S'-0.0'
p870
tp871
I1013
s(S'0.45'
p872
g16
S'0.2'
p873
g16
S'-0.1'
p874
tp875
I1582
s(S'0.35'
p876
g16
S'0.45'
p877
g16
S'0.0'
p878
tp879
I1465
s(S'0.2'
p880
g16
S'0.45'
p881
g16
S'0.25'
p882
tp883
I959
s(S'0.1'
p884
g16
S'0.4'
p885
g16
S'-0.25'
p886
tp887
I496
s(S'0.05'
p888
g16
S'0.3'
p889
g16
S'-0.3'
p890
tp891
I256
s(S'0.3'
p892
g16
S'0.35'
p893
g16
S'-0.1'
p894
tp895
I1299
s(S'0.4'
p896
g16
S'0.25'
p897
g16
S'-0.1'
p898
tp899
I1526
s(S'0.15'
p900
g16
S'0.1'
p901
g16
S'0.1'
p902
tp903
I623
s(S'0.1'
p904
g16
S'0.55'
p905
g16
S'0.05'
p906
tp907
I549
s(S'0.3'
p908
g16
S'0.1'
p909
g16
S'0.2'
p910
tp911
I1232
s(S'0.15'
p912
g16
S'-0.0'
p913
g16
S'-0.3'
p914
tp915
I582
s(S'0.1'
p916
g16
S'0.3'
p917
g16
S'0.25'
p918
tp919
I472
s(S'0.3'
p920
g16
S'0.05'
p921
g16
S'-0.15'
p922
tp923
I1211
s(S'0.25'
p924
g16
S'0.05'
p925
g16
S'0.25'
p926
tp927
I1032
s(S'0.1'
p928
g16
S'0.5'
p929
g16
S'-0.2'
p930
tp931
I530
s(S'0.05'
p932
g16
S'0.4'
p933
g16
S'0.2'
p934
tp935
I301
s(S'0.15'
p936
g16
S'-0.0'
p937
g16
S'0.35'
p938
tp939
I595
s(S'0.1'
p940
g16
S'0.6'
p941
g16
S'-0.2'
p942
tp943
I556
s(S'0.05'
p944
g16
S'0.5'
p945
g16
S'-0.15'
p946
tp947
I327
s(S'0.05'
p948
g16
S'0.35'
p949
g16
S'-0.15'
p950
tp951
I277
s(S'0.0'
p952
g16
S'0.5'
p953
g16
S'-0.25'
p954
tp955
I141
s(S'0.2'
p956
g16
S'0.3'
p957
g16
S'-0.35'
p958
tp959
I899
s(S'0.05'
p960
g16
S'0.15'
p961
g16
S'0.05'
p962
tp963
I209
s(S'-0.0'
p964
g16
S'0.4'
p965
g16
S'0.15'
p966
tp967
I116
s(S'0.1'
p968
g16
S'0.25'
p969
g16
S'-0.15'
p970
tp971
I446
s(S'-0.0'
p972
g16
S'0.35'
p973
g16
S'-0.25'
p974
tp975
I91
s(S'-0.0'
p976
g16
S'0.5'
p977
g16
S'-0.15'
p978
tp979
I143
s(S'0.25'
p980
g16
S'0.35'
p981
g16
S'-0.05'
p982
tp983
I1124
s(S'0.0'
p984
g16
S'0.2'
p985
g16
S'0.3'
p986
tp987
I49
s(S'0.2'
p988
g16
S'0.35'
p989
g16
S'0.4'
p990
tp991
I931
s(S'0.15'
p992
g16
S'0.35'
p993
g16
S'-0.1'
p994
tp995
I706
s(S'0.2'
p996
g16
S'0.6'
p997
g16
S'0.15'
p998
tp999
I993
s(S'0.3'
p1000
g16
S'0.4'
p1001
g16
S'0.3'
p1002
tp1003
I1320
s(S'0.05'
p1004
g16
S'0.15'
p1005
g16
S'0.4'
p1006
tp1007
I216
s(S'0.45'
p1008
g16
S'0.35'
p1009
g16
S'0.1'
p1010
tp1011
I1606
s(S'0.1'
p1012
g16
S'0.35'
p1013
g16
S'0.1'
p1014
tp1015
I486
s(S'0.15'
p1016
g16
S'0.25'
p1017
g16
S'0.15'
p1018
tp1019
I677
s(S'0.1'
p1020
g16
S'0.15'
p1021
g16
S'-0.0'
p1022
tp1023
I413
s(S'0.15'
p1024
g16
S'0.5'
p1025
g16
S'0.0'
p1026
tp1027
I756
s(S'0.4'
p1028
g16
S'0.15'
p1029
g16
S'0.0'
p1030
tp1031
I1506
s(S'0.3'
p1032
g16
S'0.05'
p1033
g16
S'-0.05'
p1034
tp1035
I1213
s(S'0.1'
p1036
g16
S'0.25'
p1037
g16
S'-0.0'
p1038
tp1039
I449
s(S'0.3'
p1040
g16
S'-0.05'
p1041
g16
S'-0.15'
p1042
tp1043
I1189
s(S'0.15'
p1044
g16
S'0.4'
p1045
g16
S'0.0'
p1046
tp1047
I725
s(S'0.0'
p1048
g16
S'0.15'
p1049
g16
S'0.4'
p1050
tp1051
I34
s(S'0.35'
p1052
g16
S'0.45'
p1053
g16
S'0.25'
p1054
tp1055
I1470
s(S'0.4'
p1056
g16
S'0.1'
p1057
g16
S'0.2'
p1058
tp1059
I1500
s(S'0.05'
p1060
g16
S'0.35'
p1061
g16
S'0.1'
p1062
tp1063
I282
s(S'0.1'
p1064
g16
S'0.15'
p1065
g16
S'0.45'
p1066
tp1067
I422
s(S'0.3'
p1068
g16
S'0.15'
p1069
g16
S'-0.15'
p1070
tp1071
I1239
s(S'0.2'
p1072
g16
S'0.2'
p1073
g16
S'0.45'
p1074
tp1075
I881
s(S'0.4'
p1076
g16
S'0.2'
p1077
g16
S'-0.05'
p1078
tp1079
I1516
s(S'0.4'
p1080
g16
S'0.4'
p1081
g16
S'0.1'
p1082
tp1083
I1560
s(S'0.25'
p1084
g16
S'0.1'
p1085
g16
S'0.1'
p1086
tp1087
I1044
s(S'0.1'
p1088
g16
S'0.2'
p1089
g16
S'-0.4'
p1090
tp1091
I423
s(S'0.2'
p1092
g16
S'0.25'
p1093
g16
S'0.45'
p1094
tp1095
I898
s(S'0.05'
p1096
g16
S'0.45'
p1097
g16
S'0.15'
p1098
tp1099
I317
s(S'0.3'
p1100
g16
S'0.05'
p1101
g16
S'-0.2'
p1102
tp1103
I1210
s(S'0.2'
p1104
g16
S'0.5'
p1105
g16
S'-0.2'
p1106
tp1107
I964
s(S'0.05'
p1108
g16
S'0.05'
p1109
g16
S'0.1'
p1110
tp1111
I181
s(S'0.15'
p1112
g16
S'0.55'
p1113
g16
S'-0.05'
p1114
tp1115
I767
s(S'0.2'
p1116
g16
S'0.2'
p1117
g16
S'0.3'
p1118
tp1119
I878
s(S'0.1'
p1120
g16
S'0.15'
p1121
g16
S'0.3'
p1122
tp1123
I419
s(S'0.05'
p1124
g16
S'0.45'
p1125
g16
S'0.2'
p1126
tp1127
I318
s(S'0.05'
p1128
g16
S'0.2'
p1129
g16
S'-0.1'
p1130
tp1131
I224
s(S'0.1'
p1132
g16
S'0.35'
p1133
g16
S'-0.2'
p1134
tp1135
I480
s(S'0.35'
p1136
g16
S'0.35'
p1137
g16
S'-0.1'
p1138
tp1139
I1442
s(S'0.2'
p1140
g16
S'-0.05'
p1141
g16
S'-0.05'
p1142
tp1143
I794
s(S'0.2'
p1144
g16
S'0.4'
p1145
g16
S'0.4'
p1146
tp1147
I947
s(S'0.25'
p1148
g16
S'0.25'
p1149
g16
S'0.45'
p1150
tp1151
I1101
s(S'0.15'
p1152
g16
S'0.2'
p1153
g16
S'0.45'
p1154
tp1155
I665
s(S'0.3'
p1156
g16
S'0.35'
p1157
g16
S'0.05'
p1158
tp1159
I1302
s(S'0.1'
p1160
g16
S'0.05'
p1161
g16
S'-0.0'
p1162
tp1163
I379
s(S'0.2'
p1164
g16
S'0.15'
p1165
g16
S'-0.35'
p1166
tp1167
I848
s(S'0.3'
p1168
g16
S'0.3'
p1169
g16
S'-0.2'
p1170
tp1171
I1283
s(S'0.05'
p1172
g16
S'0.55'
p1173
g16
S'0.25'
p1174
tp1175
I349
s(S'0.35'
p1176
g16
S'-0.0'
p1177
g16
S'0.05'
p1178
tp1179
I1359
s(S'0.2'
p1180
g16
S'0.1'
p1181
g16
S'0.4'
p1182
tp1183
I846
s(S'0.4'
p1184
g16
S'0.35'
p1185
g16
S'0.25'
p1186
tp1187
I1554
s(S'0.05'
p1188
g16
S'0.2'
p1189
g16
S'0.15'
p1190
tp1191
I229
s(S'0.15'
p1192
g16
S'0.25'
p1193
g16
S'0.2'
p1194
tp1195
I678
s(S'0.25'
p1196
g16
S'-0.05'
p1197
g16
S'0.05'
p1198
tp1199
I1002
s(S'0.15'
p1200
g16
S'0.1'
p1201
g16
S'-0.15'
p1202
tp1203
I618
s(S'0.05'
p1204
g16
S'0.1'
p1205
g16
S'0.15'
p1206
tp1207
I194
s(S'0.35'
p1208
g16
S'0.4'
p1209
g16
S'0.2'
p1210
tp1211
I1459
s(S'-0.0'
p1212
g16
S'0.4'
p1213
g16
S'0.2'
p1214
tp1215
I117
s(S'0.15'
p1216
g16
S'0.05'
p1217
g16
S'-0.2'
p1218
tp1219
I600
s(S'0.25'
p1220
g16
S'0.45'
p1221
g16
S'-0.2'
p1222
tp1223
I1150
s(S'0.35'
p1224
g16
S'0.05'
p1225
g16
S'-0.15'
p1226
tp1227
I1365
s(S'0.1'
p1228
g16
S'0.25'
p1229
g16
S'0.25'
p1230
tp1231
I454
s(S'-0.0'
p1232
g16
S'0.55'
p1233
g16
S'0.2'
p1234
tp1235
I164
s(S'0.2'
p1236
g16
S'0.6'
p1237
g16
S'0.2'
p1238
tp1239
I994
s(S'0.25'
p1240
g16
S'0.1'
p1241
g16
S'-0.1'
p1242
tp1243
I1040
s(S'0.1'
p1244
g16
S'0.55'
p1245
g16
S'0.3'
p1246
tp1247
I554
s(S'-0.0'
p1248
g16
S'0.5'
p1249
g16
S'0.1'
p1250
tp1251
I148
s(S'0.25'
p1252
g16
S'0.2'
p1253
g16
S'-0.05'
p1254
tp1255
I1074
s(S'0.0'
p1256
g16
S'0.15'
p1257
g16
S'-0.3'
p1258
tp1259
I22
s(S'-0.0'
p1260
g16
S'0.3'
p1261
g16
S'-0.15'
p1262
tp1263
I75
s(S'0.05'
p1264
g16
S'0.4'
p1265
g16
S'0.45'
p1266
tp1267
I306
s(S'0.05'
p1268
g16
S'0.15'
p1269
g16
S'-0.25'
p1270
tp1271
I203
s(S'0.15'
p1272
g16
S'0.05'
p1273
g16
S'0.1'
p1274
tp1275
I606
s(S'0.15'
p1276
g16
S'-0.05'
p1277
g16
S'0.15'
p1278
tp1279
I578
s(S'0.2'
p1280
g16
S'0.4'
p1281
g16
S'-0.05'
p1282
tp1283
I938
s(S'0.2'
p1284
g16
S'0.15'
p1285
g16
S'-0.2'
p1286
tp1287
I851
s(S'0.1'
p1288
g16
S'0.3'
p1289
g16
S'0.1'
p1290
tp1291
I469
s(S'0.1'
p1292
g16
S'0.25'
p1293
g16
S'0.35'
p1294
tp1295
I456
s(S'0.3'
p1296
g16
S'0.4'
p1297
g16
S'0.05'
p1298
tp1299
I1315
s(S'0.25'
p1300
g16
S'0.05'
p1301
g16
S'0.1'
p1302
tp1303
I1029
s(S'0.45'
p1304
g16
S'0.15'
p1305
g16
S'0.1'
p1306
tp1307
I1579
s(S'0.4'
p1308
g16
S'0.3'
p1309
g16
S'-0.2'
p1310
tp1311
I1535
s(S'0.05'
p1312
g16
S'0.2'
p1313
g16
S'0.45'
p1314
tp1315
I235
s(S'0.3'
p1316
g16
S'-0.05'
p1317
g16
S'-0.05'
p1318
tp1319
I1191
s(S'0.2'
p1320
g16
S'0.4'
p1321
g16
S'0.35'
p1322
tp1323
I946
s(S'0.05'
p1324
g16
S'0.1'
p1325
g16
S'-0.3'
p1326
tp1327
I188
s(S'0.25'
p1328
g16
S'0.5'
p1329
g16
S'-0.25'
p1330
tp1331
I1162
s(S'0.2'
p1332
g16
S'0.45'
p1333
g16
S'0.4'
p1334
tp1335
I962
s(S'0.3'
p1336
g16
S'0.05'
p1337
g16
S'0.2'
p1338
tp1339
I1218
s(S'0.3'
p1340
g16
S'0.1'
p1341
g16
S'-0.15'
p1342
tp1343
I1225
s(S'0.35'
p1344
g16
S'0.1'
p1345
g16
S'0.05'
p1346
tp1347
I1381
s(S'0.35'
p1348
g16
S'0.5'
p1349
g16
S'0.15'
p1350
tp1351
I1476
s(S'0.4'
p1352
g16
S'0.3'
p1353
g16
S'-0.15'
p1354
tp1355
I1536
s(S'0.35'
p1356
g16
S'0.0'
p1357
g16
S'0.2'
p1358
tp1359
I1362
s(S'0.3'
p1360
g16
S'0.5'
p1361
g16
S'-0.15'
p1362
tp1363
I1334
s(S'0.4'
p1364
g16
S'0.4'
p1365
g16
S'0.25'
p1366
tp1367
I1563
s(S'0.25'
p1368
g16
S'0.25'
p1369
g16
S'0.15'
p1370
tp1371
I1095
s(S'0.45'
p1372
g16
S'0.2'
p1373
g16
S'0.15'
p1374
tp1375
I1587
s(S'0.15'
p1376
g16
S'0.55'
p1377
g16
S'0.05'
p1378
tp1379
I769
s(S'0.25'
p1380
g16
S'0.45'
p1381
g16
S'0.0'
p1382
tp1383
I1154
s(S'0.35'
p1384
g16
S'0.45'
p1385
g16
S'0.1'
p1386
tp1387
I1467
s(S'0.15'
p1388
g16
S'0.15'
p1389
g16
S'0.2'
p1390
tp1391
I642
s(S'0.3'
p1392
g16
S'0.45'
p1393
g16
S'0.15'
p1394
tp1395
I1329
s(S'0.05'
p1396
g16
S'0.2'
p1397
g16
S'0.3'
p1398
tp1399
I232
s(S'0.3'
p1400
g16
S'0.1'
p1401
g16
S'-0.2'
p1402
tp1403
I1224
s(S'0.3'
p1404
g16
S'0.55'
p1405
g16
S'0.05'
p1406
tp1407
I1347
s(S'0.05'
p1408
g16
S'0.35'
p1409
g16
S'0.4'
p1410
tp1411
I288
s(S'0.4'
p1412
g16
S'0.4'
p1413
g16
S'0.05'
p1414
tp1415
I1559
s(S'0.45'
p1416
g16
S'0.3'
p1417
g16
S'0.05'
p1418
tp1419
I1599
s(S'0.3'
p1420
g16
S'0.2'
p1421
g16
S'0.2'
p1422
tp1423
I1261
s(S'0.3'
p1424
g16
S'0.35'
p1425
g16
S'-0.15'
p1426
tp1427
I1298
s(S'0.25'
p1428
g16
S'0.05'
p1429
g16
S'0.15'
p1430
tp1431
I1030
s(S'0.15'
p1432
g16
S'0.55'
p1433
g16
S'0.2'
p1434
tp1435
I772
s(S'0.1'
p1436
g16
S'0.3'
p1437
g16
S'0.15'
p1438
tp1439
I470
s(S'0.25'
p1440
g16
S'0.05'
p1441
g16
S'-0.3'
p1442
tp1443
I1021
s(S'0.35'
p1444
g16
S'0.2'
p1445
g16
S'0.05'
p1446
tp1447
I1407
s(S'0.2'
p1448
g16
S'-0.1'
p1449
g16
S'0.2'
p1450
tp1451
I790
s(S'0.1'
p1452
g16
S'0.25'
p1453
g16
S'0.05'
p1454
tp1455
I450
s(S'0.4'
p1456
g16
S'0.15'
p1457
g16
S'-0.05'
p1458
tp1459
I1505
s(S'0.45'
p1460
g16
S'0.25'
p1461
g16
S'0.2'
p1462
tp1463
I1595
s(S'0.05'
p1464
g16
S'-0.0'
p1465
g16
S'0.35'
p1466
tp1467
I179
s(S'0.05'
p1468
g16
S'0.6'
p1469
g16
S'0.25'
p1470
tp1471
I361
s(S'0.15'
p1472
g16
S'0.35'
p1473
g16
S'0.1'
p1474
tp1475
I710
s(S'0.05'
p1476
g16
S'0.55'
p1477
g16
S'-0.25'
p1478
tp1479
I339
s(S'0.4'
p1480
g16
S'0.1'
p1481
g16
S'-0.1'
p1482
tp1483
I1494
s(S'-0.0'
p1484
g16
S'0.35'
p1485
g16
S'0.05'
p1486
tp1487
I97
s(S'0.2'
p1488
g16
S'0.4'
p1489
g16
S'-0.25'
p1490
tp1491
I934
s(S'0.25'
p1492
g16
S'0.3'
p1493
g16
S'-0.3'
p1494
tp1495
I1103
s(S'0.4'
p1496
g16
S'0.35'
p1497
g16
S'0.2'
p1498
tp1499
I1553
s(S'0.15'
p1500
g16
S'0.05'
p1501
g16
S'-0.15'
p1502
tp1503
I601
s(S'0.25'
p1504
g16
S'0.05'
p1505
g16
S'-0.1'
p1506
tp1507
I1025
s(S'0.2'
p1508
g16
S'0.45'
p1509
g16
S'-0.1'
p1510
tp1511
I952
s(S'0.05'
p1512
g16
S'0.55'
p1513
g16
S'0.1'
p1514
tp1515
I346
s(S'0.2'
p1516
g16
S'-0.05'
p1517
g16
S'0.1'
p1518
tp1519
I797
s(S'-0.0'
p1520
g16
S'0.55'
p1521
g16
S'0.25'
p1522
tp1523
I165
s(S'0.35'
p1524
g16
S'0.05'
p1525
g16
S'-0.05'
p1526
tp1527
I1367
s(S'0.35'
p1528
g16
S'0.2'
p1529
g16
S'0.3'
p1530
tp1531
I1412
s(S'0.35'
p1532
g16
S'0.1'
p1533
g16
S'0.25'
p1534
tp1535
I1385
s(S'0.05'
p1536
g16
S'0.6'
p1537
g16
S'-0.2'
p1538
tp1539
I352
s(S'0.25'
p1540
g16
S'0.45'
p1541
g16
S'0.1'
p1542
tp1543
I1156
s(S'0.05'
p1544
g16
S'0.5'
p1545
g16
S'-0.25'
p1546
tp1547
I325
s(S'0.3'
p1548
g16
S'-0.05'
p1549
g16
S'0.0'
p1550
tp1551
I1192
s(S'0.15'
p1552
g16
S'0.15'
p1553
g16
S'-0.2'
p1554
tp1555
I634
s(S'0.0'
p1556
g16
S'0.1'
p1557
g16
S'-0.1'
p1558
tp1559
I12
s(S'0.3'
p1560
g16
S'-0.05'
p1561
g16
S'-0.1'
p1562
tp1563
I1190
s(S'0.2'
p1564
g16
S'0.3'
p1565
g16
S'0.35'
p1566
tp1567
I913
s(S'0.15'
p1568
g16
S'-0.1'
p1569
g16
S'0.15'
p1570
tp1571
I569
s(S'0.15'
p1572
g16
S'0.35'
p1573
g16
S'-0.2'
p1574
tp1575
I704
s(S'0.3'
p1576
g16
S'0.25'
p1577
g16
S'-0.2'
p1578
tp1579
I1268
s(S'-0.0'
p1580
g16
S'0.4'
p1581
g16
S'0.45'
p1582
tp1583
I122
s(S'0.35'
p1584
g16
S'0.2'
p1585
g16
S'-0.25'
p1586
tp1587
I1401
s(S'0.25'
p1588
g16
S'0.4'
p1589
g16
S'0.2'
p1590
tp1591
I1144
s(S'-0.0'
p1592
g16
S'0.45'
p1593
g16
S'-0.1'
p1594
tp1595
I128
s(S'0.2'
p1596
g16
S'0.4'
p1597
g16
S'-0.1'
p1598
tp1599
I937
s(S'0.1'
p1600
g16
S'0.3'
p1601
g16
S'-0.3'
p1602
tp1603
I461
s(S'0.35'
p1604
g16
S'0.25'
p1605
g16
S'0.1'
p1606
tp1607
I1421
s(S'0.35'
p1608
g16
S'0.05'
p1609
g16
S'-0.2'
p1610
tp1611
I1364
s(S'0.05'
p1612
g16
S'0.3'
p1613
g16
S'0.05'
p1614
tp1615
I263
s(S'0.15'
p1616
g16
S'0.3'
p1617
g16
S'0.15'
p1618
tp1619
I694
s(S'-0.0'
p1620
g16
S'0.55'
p1621
g16
S'-0.2'
p1622
tp1623
I156
s(S'0.35'
p1624
g16
S'0.35'
p1625
g16
S'0.2'
p1626
tp1627
I1448
s(S'0.1'
p1628
g16
S'0.05'
p1629
g16
S'0.15'
p1630
tp1631
I382
s(S'0.1'
p1632
g16
S'0.35'
p1633
g16
S'0.2'
p1634
tp1635
I488
s(S'0.35'
p1636
g16
S'0.3'
p1637
g16
S'-0.25'
p1638
tp1639
I1427
s(S'0.15'
p1640
g16
S'-0.0'
p1641
g16
S'0.3'
p1642
tp1643
I594
s(S'0.2'
p1644
g16
S'0.05'
p1645
g16
S'-0.25'
p1646
tp1647
I817
s(S'0.2'
p1648
g16
S'0.25'
p1649
g16
S'0.3'
p1650
tp1651
I895
s(S'-0.0'
p1652
g16
S'0.6'
p1653
g16
S'0.05'
p1654
tp1655
I173
s(S'0.15'
p1656
g16
S'0.5'
p1657
g16
S'-0.2'
p1658
tp1659
I752
s(S'0.05'
p1660
g16
S'0.5'
p1661
g16
S'0.05'
p1662
tp1663
I331
s(S'0.3'
p1664
g16
S'0.0'
p1665
g16
S'-0.15'
p1666
tp1667
I1199
s(S'0.4'
p1668
g16
S'0.1'
p1669
g16
S'0.1'
p1670
tp1671
I1498
s(S'-0.0'
p1672
g16
S'0.5'
p1673
g16
S'0.25'
p1674
tp1675
I151
s(S'0.0'
p1676
g16
S'0.5'
p1677
g16
S'-0.3'
p1678
tp1679
I140
s(S'0.25'
p1680
g16
S'0.1'
p1681
g16
S'0.4'
p1682
tp1683
I1050
s(S'0.15'
p1684
g16
S'0.4'
p1685
g16
S'0.15'
p1686
tp1687
I728
s(S'0.15'
p1688
g16
S'0.25'
p1689
g16
S'-0.2'
p1690
tp1691
I670
s(S'0.4'
p1692
g16
S'0.2'
p1693
g16
S'0.05'
p1694
tp1695
I1518
s(S'0.2'
p1696
g16
S'0.2'
p1697
g16
S'0.25'
p1698
tp1699
I877
s(S'0.3'
p1700
g16
S'0.05'
p1701
g16
S'-0.1'
p1702
tp1703
I1212
s(S'0.15'
p1704
g16
S'0.35'
p1705
g16
S'0.45'
p1706
tp1707
I717
s(S'-0.0'
p1708
g16
S'0.4'
p1709
g16
S'-0.2'
p1710
tp1711
I109
s(S'0.2'
p1712
g16
S'0.05'
p1713
g16
S'-0.3'
p1714
tp1715
I816
s(S'0.3'
p1716
g16
S'0.15'
p1717
g16
S'-0.05'
p1718
tp1719
I1241
s(S'0.4'
p1720
g16
S'0.3'
p1721
g16
S'0.2'
p1722
tp1723
I1543
s(S'0.2'
p1724
g16
S'0.2'
p1725
g16
S'0.0'
p1726
tp1727
I872
s(S'0.25'
p1728
g16
S'0.4'
p1729
g16
S'-0.2'
p1730
tp1731
I1136
s(S'0.35'
p1732
g16
S'0.4'
p1733
g16
S'0.15'
p1734
tp1735
I1458
s(S'0.2'
p1736
g16
S'-0.0'
p1737
g16
S'0.15'
p1738
tp1739
I810
s(S'0.3'
p1740
g16
S'0.2'
p1741
g16
S'0.25'
p1742
tp1743
I1262
s(S'0.05'
p1744
g16
S'0.4'
p1745
g16
S'0.4'
p1746
tp1747
I305
s(S'0.05'
p1748
g16
S'0.3'
p1749
g16
S'-0.25'
p1750
tp1751
I257
s(S'0.25'
p1752
g16
S'0.0'
p1753
g16
S'-0.2'
p1754
tp1755
I1009
s(S'0.2'
p1756
g16
S'-0.0'
p1757
g16
S'0.05'
p1758
tp1759
I808
s(S'0.35'
p1760
g16
S'0.05'
p1761
g16
S'0.0'
p1762
tp1763
I1368
s(S'0.35'
p1764
g16
S'0.25'
p1765
g16
S'-0.1'
p1766
tp1767
I1417
s(S'0.1'
p1768
g16
S'0.05'
p1769
g16
S'0.2'
p1770
tp1771
I383
s(S'0.25'
p1772
g16
S'0.2'
p1773
g16
S'0.3'
p1774
tp1775
I1081
s(S'0.45'
p1776
g16
S'0.15'
p1777
g16
S'0.05'
p1778
tp1779
I1578
s(S'0.45'
p1780
g16
S'0.35'
p1781
g16
S'0.15'
p1782
tp1783
I1607
s(S'0.05'
p1784
g16
S'0.05'
p1785
g16
S'0.25'
p1786
tp1787
I183
s(S'0.45'
p1788
g16
S'0.25'
p1789
g16
S'-0.05'
p1790
tp1791
I1590
s(S'0.1'
p1792
g16
S'0.2'
p1793
g16
S'0.4'
p1794
tp1795
I439
s(S'0.15'
p1796
g16
S'0.25'
p1797
g16
S'0.1'
p1798
tp1799
I676
s(S'0.1'
p1800
g16
S'0.1'
p1801
g16
S'-0.15'
p1802
tp1803
I393
s(S'0.1'
p1804
g16
S'0.4'
p1805
g16
S'0.3'
p1806
tp1807
I507
s(S'0.2'
p1808
g16
S'0.15'
p1809
g16
S'-0.05'
p1810
tp1811
I854
s(S'0.35'
p1812
g16
S'0.0'
p1813
g16
S'-0.15'
p1814
tp1815
I1355
s(S'0.4'
p1816
g16
S'0.15'
p1817
g16
S'-0.15'
p1818
tp1819
I1503
s(S'0.2'
p1820
g16
S'0.1'
p1821
g16
S'0.45'
p1822
tp1823
I847
s(S'0.2'
p1824
g16
S'0.3'
p1825
g16
S'-0.25'
p1826
tp1827
I901
s(S'0.15'
p1828
g16
S'0.4'
p1829
g16
S'0.25'
p1830
tp1831
I730
s(S'0.25'
p1832
g16
S'0.5'
p1833
g16
S'0.0'
p1834
tp1835
I1167
s(S'-0.0'
p1836
g16
S'0.55'
p1837
g16
S'0.1'
p1838
tp1839
I162
s(S'0.05'
p1840
g16
S'0.45'
p1841
g16
S'-0.2'
p1842
tp1843
I310
s(S'0.2'
p1844
g16
S'0.35'
p1845
g16
S'-0.15'
p1846
tp1847
I920
s(S'0.4'
p1848
g16
S'0.2'
p1849
g16
S'-0.1'
p1850
tp1851
I1515
s(S'0.25'
p1852
g16
S'0.3'
p1853
g16
S'0.15'
p1854
tp1855
I1112
s(S'-0.0'
p1856
g16
S'0.5'
p1857
g16
S'0.4'
p1858
tp1859
I154
s(S'0.05'
p1860
g16
S'0.25'
p1861
g16
S'0.15'
p1862
tp1863
I247
s(S'0.2'
p1864
g16
S'0.2'
p1865
g16
S'0.05'
p1866
tp1867
I873
s(S'0.2'
p1868
g16
S'0.4'
p1869
g16
S'0.1'
p1870
tp1871
I941
s(S'0.05'
p1872
g16
S'0.35'
p1873
g16
S'0.05'
p1874
tp1875
I281
s(S'0.25'
p1876
g16
S'0.35'
p1877
g16
S'0.25'
p1878
tp1879
I1130
s(S'-0.0'
p1880
g16
S'0.2'
p1881
g16
S'-0.0'
p1882
tp1883
I44
s(S'0.05'
p1884
g16
S'0.6'
p1885
g16
S'0.1'
p1886
tp1887
I358
s(S'0.1'
p1888
g16
S'0.05'
p1889
g16
S'-0.1'
p1890
tp1891
I377
s(S'0.3'
p1892
g16
S'0.15'
p1893
g16
S'0.25'
p1894
tp1895
I1247
s(S'0.35'
p1896
g16
S'0.3'
p1897
g16
S'0.35'
p1898
tp1899
I1439
s(S'0.0'
p1900
g16
S'0.55'
p1901
g16
S'-0.25'
p1902
tp1903
I155
s(S'0.15'
p1904
g16
S'0.05'
p1905
g16
S'0.4'
p1906
tp1907
I612
s(S'0.2'
p1908
g16
S'0.5'
p1909
g16
S'-0.25'
p1910
tp1911
I963
s(S'0.3'
p1912
g16
S'0.05'
p1913
g16
S'-0.25'
p1914
tp1915
I1209
s(S'0.1'
p1916
g16
S'0.3'
p1917
g16
S'0.2'
p1918
tp1919
I471
s(S'0.25'
p1920
g16
S'0.05'
p1921
g16
S'0.2'
p1922
tp1923
I1031
s(S'0.35'
p1924
g16
S'0.25'
p1925
g16
S'0.25'
p1926
tp1927
I1424
s(S'0.25'
p1928
g16
S'0.5'
p1929
g16
S'0.1'
p1930
tp1931
I1169
s(S'0.1'
p1932
g16
S'0.2'
p1933
g16
S'0.25'
p1934
tp1935
I436
s(S'0.3'
p1936
g16
S'0.2'
p1937
g16
S'0.15'
p1938
tp1939
I1260
s(S'0.3'
p1940
g16
S'-0.05'
p1941
g16
S'0.25'
p1942
tp1943
I1197
s(S'0.1'
p1944
g16
S'0.1'
p1945
g16
S'0.05'
p1946
tp1947
I397
s(S'0.3'
p1948
g16
S'-0.05'
p1949
g16
S'0.05'
p1950
tp1951
I1193
s(S'0.1'
p1952
g16
S'0.5'
p1953
g16
S'0.4'
p1954
tp1955
I542
s(S'0.25'
p1956
g16
S'0.3'
p1957
g16
S'0.3'
p1958
tp1959
I1115
s(S'0.3'
p1960
g16
S'0.05'
p1961
g16
S'0.1'
p1962
tp1963
I1216
s(S'0.05'
p1964
g16
S'0.55'
p1965
g16
S'-0.2'
p1966
tp1967
I340
s(S'0.25'
p1968
g16
S'0.15'
p1969
g16
S'-0.35'
p1970
tp1971
I1051
s(S'0.05'
p1972
g16
S'0.15'
p1973
g16
S'-0.35'
p1974
tp1975
I201
s(S'0.05'
p1976
g16
S'0.35'
p1977
g16
S'0.15'
p1978
tp1979
I283
s(S'0.25'
p1980
g16
S'0.15'
p1981
g16
S'-0.15'
p1982
tp1983
I1055
s(S'0.2'
p1984
g16
S'0.0'
p1985
g16
S'0.35'
p1986
tp1987
I814
s(S'0.1'
p1988
g16
S'0.25'
p1989
g16
S'0.15'
p1990
tp1991
I452
s(S'0.05'
p1992
g16
S'0.25'
p1993
g16
S'0.0'
p1994
tp1995
I244
s(S'0.35'
p1996
g16
S'0.1'
p1997
g16
S'0.1'
p1998
tp1999
I1382
s(S'-0.0'
p2000
g16
S'0.5'
p2001
g16
S'0.15'
p2002
tp2003
I149
s(S'0.05'
p2004
g16
S'0.4'
p2005
g16
S'-0.2'
p2006
tp2007
I293
s(S'0.3'
p2008
g16
S'0.5'
p2009
g16
S'0.25'
p2010
tp2011
I1342
s(S'0.15'
p2012
g16
S'0.15'
p2013
g16
S'0.15'
p2014
tp2015
I641
s(S'0.2'
p2016
g16
S'0.45'
p2017
g16
S'0.05'
p2018
tp2019
I955
s(S'0.3'
p2020
g16
S'0.2'
p2021
g16
S'0.1'
p2022
tp2023
I1259
s(S'0.05'
p2024
g16
S'0.5'
p2025
g16
S'0.0'
p2026
tp2027
I330
s(S'0.1'
p2028
g16
S'0.1'
p2029
g16
S'-0.25'
p2030
tp2031
I391
s(S'0.3'
p2032
g16
S'0.05'
p2033
g16
S'0.35'
p2034
tp2035
I1221
s(S'-0.0'
p2036
g16
S'0.35'
p2037
g16
S'-0.2'
p2038
tp2039
I92
s(S'0.3'
p2040
g16
S'0.25'
p2041
g16
S'-0.15'
p2042
tp2043
I1269
s(S'0.2'
p2044
g16
S'0.1'
p2045
g16
S'-0.05'
p2046
tp2047
I837
s(S'0.15'
p2048
g16
S'0.1'
p2049
g16
S'-0.3'
p2050
tp2051
I615
s(S'0.1'
p2052
g16
S'0.05'
p2053
g16
S'0.35'
p2054
tp2055
I386
s(S'0.25'
p2056
g16
S'-0.05'
p2057
g16
S'0.3'
p2058
tp2059
I1007
s(S'0.2'
p2060
g16
S'0.15'
p2061
g16
S'0.45'
p2062
tp2063
I864
s(S'0.1'
p2064
g16
S'0.4'
p2065
g16
S'-0.3'
p2066
tp2067
I495
s(S'0.4'
p2068
g16
S'0.25'
p2069
g16
S'0.05'
p2070
tp2071
I1529
s(S'0.15'
p2072
g16
S'0.35'
p2073
g16
S'0.2'
p2074
tp2075
I712
s(S'0.0'
p2076
g16
S'0.15'
p2077
g16
S'0.3'
p2078
tp2079
I32
s(S'0.15'
p2080
g16
S'0.45'
p2081
g16
S'0.35'
p2082
tp2083
I748
s(S'0.05'
p2084
g16
S'0.35'
p2085
g16
S'-0.3'
p2086
tp2087
I274
s(S'0.45'
p2088
g16
S'0.15'
p2089
g16
S'0.15'
p2090
tp2091
I1580
s(S'0.25'
p2092
g16
S'0.3'
p2093
g16
S'0.45'
p2094
tp2095
I1118
s(S'0.35'
p2096
g16
S'0.35'
p2097
g16
S'0.05'
p2098
tp2099
I1445
s(S'0.15'
p2100
g16
S'0.4'
p2101
g16
S'0.45'
p2102
tp2103
I734
s(S'0.35'
p2104
g16
S'0.3'
p2105
g16
S'-0.2'
p2106
tp2107
I1428
s(S'0.1'
p2108
g16
S'0.5'
p2109
g16
S'0.25'
p2110
tp2111
I539
s(S'0.15'
p2112
g16
S'-0.05'
p2113
g16
S'0.1'
p2114
tp2115
I577
s(S'0.3'
p2116
g16
S'0.3'
p2117
g16
S'0.4'
p2118
tp2119
I1295
s(S'0.25'
p2120
g16
S'0.05'
p2121
g16
S'-0.2'
p2122
tp2123
I1023
s(S'0.25'
p2124
g16
S'0.35'
p2125
g16
S'-0.3'
p2126
tp2127
I1119
s(S'0.0'
p2128
g16
S'0.15'
p2129
g16
S'-0.25'
p2130
tp2131
I23
s(S'0.05'
p2132
g16
S'0.4'
p2133
g16
S'0.05'
p2134
tp2135
I298
s(S'0.25'
p2136
g16
S'0.55'
p2137
g16
S'0.0'
p2138
tp2139
I1177
s(S'0.25'
p2140
g16
S'0.2'
p2141
g16
S'0.15'
p2142
tp2143
I1078
s(S'0.3'
p2144
g16
S'0.4'
p2145
g16
S'-0.05'
p2146
tp2147
I1313
s(S'-0.0'
p2148
g16
S'0.55'
p2149
g16
S'0.15'
p2150
tp2151
I163
s(S'0.3'
p2152
g16
S'0.15'
p2153
g16
S'-0.3'
p2154
tp2155
I1236
s(S'0.2'
p2156
g16
S'0.25'
p2157
g16
S'0.0'
p2158
tp2159
I889
s(S'0.05'
p2160
g16
S'0.45'
p2161
g16
S'0.25'
p2162
tp2163
I319
s(S'0.05'
p2164
g16
S'0.15'
p2165
g16
S'-0.2'
p2166
tp2167
I204
s(S'0.4'
p2168
g16
S'0.05'
p2169
g16
S'0.15'
p2170
tp2171
I1489
s(S'0.3'
p2172
g16
S'0.5'
p2173
g16
S'0.1'
p2174
tp2175
I1339
s(S'0.2'
p2176
g16
S'0.2'
p2177
g16
S'-0.3'
p2178
tp2179
I866
s(S'0.05'
p2180
g16
S'0.4'
p2181
g16
S'-0.1'
p2182
tp2183
I295
s(S'0.1'
p2184
g16
S'0.6'
p2185
g16
S'0.05'
p2186
tp2187
I561
s(S'0.35'
p2188
g16
S'0.3'
p2189
g16
S'0.2'
p2190
tp2191
I1436
s(S'0.2'
p2192
g16
S'0.1'
p2193
g16
S'-0.35'
p2194
tp2195
I831
s(S'0.0'
p2196
g16
S'0.2'
p2197
g16
S'-0.2'
p2198
tp2199
I40
s(S'0.4'
p2200
g16
S'0.25'
p2201
g16
S'0.1'
p2202
tp2203
I1530
s(S'0.4'
p2204
g16
S'0.45'
p2205
g16
S'0.1'
p2206
tp2207
I1567
s(S'0.15'
p2208
g16
S'0.45'
p2209
g16
S'0.0'
p2210
tp2211
I741
s(S'0.1'
p2212
g16
S'0.5'
p2213
g16
S'-0.05'
p2214
tp2215
I533
s(S'-0.0'
p2216
g16
S'0.3'
p2217
g16
S'0.45'
p2218
tp2219
I87
s(S'-0.0'
p2220
g16
S'0.45'
p2221
g16
S'-0.2'
p2222
tp2223
I126
s(S'0.2'
p2224
g16
S'0.4'
p2225
g16
S'-0.2'
p2226
tp2227
I935
s(S'0.2'
p2228
g16
S'0.15'
p2229
g16
S'0.3'
p2230
tp2231
I861
s(S'0.15'
p2232
g16
S'0.45'
p2233
g16
S'0.25'
p2234
tp2235
I746
s(S'0.35'
p2236
g16
S'0.05'
p2237
g16
S'-0.1'
p2238
tp2239
I1366
s(S'0.1'
p2240
g16
S'0.15'
p2241
g16
S'0.35'
p2242
tp2243
I420
s(S'0.3'
p2244
g16
S'0.15'
p2245
g16
S'0.3'
p2246
tp2247
I1248
s(S'0.1'
p2248
g16
S'0.15'
p2249
g16
S'-0.25'
p2250
tp2251
I408
s(S'-0.0'
p2252
g16
S'0.55'
p2253
g16
S'-0.1'
p2254
tp2255
I158
s(S'0.25'
p2256
g16
S'-0.0'
p2257
g16
S'0.05'
p2258
tp2259
I1014
s(S'0.3'
p2260
g16
S'-0.0'
p2261
g16
S'0.1'
p2262
tp2263
I1204
s(S'0.1'
p2264
g16
S'0.5'
p2265
g16
S'0.35'
p2266
tp2267
I541
s(S'0.05'
p2268
g16
S'0.1'
p2269
g16
S'0.2'
p2270
tp2271
I195
s(S'0.25'
p2272
g16
S'0.35'
p2273
g16
S'-0.2'
p2274
tp2275
I1121
s(S'0.25'
p2276
g16
S'0.1'
p2277
g16
S'-0.15'
p2278
tp2279
I1039
s(S'0.15'
p2280
g16
S'0.2'
p2281
g16
S'0.3'
p2282
tp2283
I662
s(S'0.15'
p2284
g16
S'0.2'
p2285
g16
S'-0.2'
p2286
tp2287
I652
s(S'0.05'
p2288
g16
S'0.3'
p2289
g16
S'0.15'
p2290
tp2291
I265
s(S'0.4'
p2292
g16
S'0.1'
p2293
g16
S'-0.05'
p2294
tp2295
I1495
s(S'0.15'
p2296
g16
S'0.3'
p2297
g16
S'0.3'
p2298
tp2299
I697
s(S'0.25'
p2300
g16
S'0.25'
p2301
g16
S'-0.2'
p2302
tp2303
I1088
s(S'0.25'
p2304
g16
S'0.15'
p2305
g16
S'0.35'
p2306
tp2307
I1065
s(S'0.3'
p2308
g16
S'0.05'
p2309
g16
S'0.05'
p2310
tp2311
I1215
s(S'-0.0'
p2312
g16
S'0.05'
p2313
g16
S'0.3'
p2314
tp2315
I6
s(S'0.15'
p2316
g16
S'0.25'
p2317
g16
S'-0.1'
p2318
tp2319
I672
s(S'-0.0'
p2320
g16
S'0.45'
p2321
g16
S'0.3'
p2322
tp2323
I136
s(S'0.25'
p2324
g16
S'0.5'
p2325
g16
S'0.2'
p2326
tp2327
I1171
s(S'0.25'
p2328
g16
S'0.1'
p2329
g16
S'0.05'
p2330
tp2331
I1043
s(S'0.3'
p2332
g16
S'0.2'
p2333
g16
S'-0.3'
p2334
tp2335
I1251
s(S'0.2'
p2336
g16
S'0.55'
p2337
g16
S'0.0'
p2338
tp2339
I980
s(S'0.2'
p2340
g16
S'0.25'
p2341
g16
S'0.05'
p2342
tp2343
I890
s(S'0.15'
p2344
g16
S'0.25'
p2345
g16
S'0.35'
p2346
tp2347
I681
s(S'0.1'
p2348
g16
S'0.55'
p2349
g16
S'0.35'
p2350
tp2351
I555
s(S'0.05'
p2352
g16
S'0.45'
p2353
g16
S'-0.05'
p2354
tp2355
I313
s(S'0.0'
p2356
g16
S'0.2'
p2357
g16
S'-0.35'
p2358
tp2359
I37
s(S'0.25'
p2360
g16
S'0.05'
p2361
g16
S'-0.25'
p2362
tp2363
I1022
s(S'0.4'
p2364
g16
S'0.2'
p2365
g16
S'0.1'
p2366
tp2367
I1519
s(S'0.25'
p2368
g16
S'-0.0'
p2369
g16
S'0.35'
p2370
tp2371
I1020
s(S'0.1'
p2372
g16
S'0.1'
p2373
g16
S'-0.1'
p2374
tp2375
I394
s(S'0.2'
p2376
g16
S'0.1'
p2377
g16
S'0.05'
p2378
tp2379
I839
s(S'0.25'
p2380
g16
S'0.2'
p2381
g16
S'-0.35'
p2382
tp2383
I1068
s(S'0.2'
p2384
g16
S'0.05'
p2385
g16
S'0.05'
p2386
tp2387
I823
s(S'-0.0'
p2388
g16
S'0.35'
p2389
g16
S'0.15'
p2390
tp2391
I99
s(S'0.05'
p2392
g16
S'0.6'
p2393
g16
S'-0.05'
p2394
tp2395
I355
s(S'0.2'
p2396
g16
S'0.1'
p2397
g16
S'0.2'
p2398
tp2399
I842
s(S'0.2'
p2400
g16
S'0.1'
p2401
g16
S'-0.1'
p2402
tp2403
I836
s(S'0.1'
p2404
g16
S'0.6'
p2405
g16
S'0.25'
p2406
tp2407
I565
s(S'0.15'
p2408
g16
S'0.05'
p2409
g16
S'0.45'
p2410
tp2411
I613
s(S'-0.0'
p2412
g16
S'0.55'
p2413
g16
S'0.35'
p2414
tp2415
I167
s(S'0.2'
p2416
g16
S'0.05'
p2417
g16
S'0.35'
p2418
tp2419
I829
s(S'-0.0'
p2420
g16
S'0.3'
p2421
g16
S'0.35'
p2422
tp2423
I85
s(S'0.35'
p2424
g16
S'0.25'
p2425
g16
S'-0.05'
p2426
tp2427
I1418
s(S'0.1'
p2428
g16
S'0.0'
p2429
g16
S'0.35'
p2430
tp2431
I372
s(S'-0.0'
p2432
g16
S'0.05'
p2433
g16
S'0.45'
p2434
tp2435
I9
s(S'0.3'
p2436
g16
S'0.3'
p2437
g16
S'-0.15'
p2438
tp2439
I1284
s(S'-0.0'
p2440
g16
S'0.45'
p2441
g16
S'0.45'
p2442
tp2443
I139
s(S'0.1'
p2444
g16
S'0.6'
p2445
g16
S'0.0'
p2446
tp2447
I560
s(S'0.1'
p2448
g16
S'0.2'
p2449
g16
S'0.45'
p2450
tp2451
I440
s(S'0.25'
p2452
g16
S'0.25'
p2453
g16
S'0.4'
p2454
tp2455
I1100
s(S'0.2'
p2456
g16
S'0.4'
p2457
g16
S'0.15'
p2458
tp2459
I942
s(S'0.05'
p2460
g16
S'0.1'
p2461
g16
S'0.35'
p2462
tp2463
I198
s(S'0.25'
p2464
g16
S'0.5'
p2465
g16
S'-0.2'
p2466
tp2467
I1163
s(S'-0.0'
p2468
g16
S'0.55'
p2469
g16
S'-0.05'
p2470
tp2471
I159
s(S'0.1'
p2472
g16
S'0.1'
p2473
g16
S'0.2'
p2474
tp2475
I400
s(S'0.2'
p2476
g16
S'0.25'
p2477
g16
S'0.35'
p2478
tp2479
I896
s(S'0.15'
p2480
g16
S'0.25'
p2481
g16
S'0.05'
p2482
tp2483
I675
s(S'0.4'
p2484
g16
S'0.2'
p2485
g16
S'-0.2'
p2486
tp2487
I1513
s(S'0.35'
p2488
g16
S'0.3'
p2489
g16
S'0.25'
p2490
tp2491
I1437
s(S'0.2'
p2492
g16
S'0.1'
p2493
g16
S'0.15'
p2494
tp2495
I841
s(S'0.35'
p2496
g16
S'0.15'
p2497
g16
S'-0.1'
p2498
tp2499
I1391
s(S'0.4'
p2500
g16
S'0.25'
p2501
g16
S'0.25'
p2502
tp2503
I1533
s(S'0.25'
p2504
g16
S'0.05'
p2505
g16
S'-0.15'
p2506
tp2507
I1024
s(S'0.35'
p2508
g16
S'0.5'
p2509
g16
S'0.05'
p2510
tp2511
I1474
s(S'0.1'
p2512
g16
S'0.3'
p2513
g16
S'-0.15'
p2514
tp2515
I464
s(S'0.0'
p2516
g16
S'0.45'
p2517
g16
S'0.25'
p2518
tp2519
I135
s(S'0.0'
p2520
g16
S'0.1'
p2521
g16
S'-0.15'
p2522
tp2523
I11
s(S'-0.0'
p2524
g16
S'0.25'
p2525
g16
S'-0.05'
p2526
tp2527
I60
s(S'-0.0'
p2528
g16
S'0.25'
p2529
g16
S'0.4'
p2530
tp2531
I68
s(S'-0.0'
p2532
g16
S'0.6'
p2533
g16
S'0.3'
p2534
tp2535
I178
s(S'0.1'
p2536
g16
S'0.45'
p2537
g16
S'0.0'
p2538
tp2539
I518
s(S'0.35'
p2540
g16
S'0.25'
p2541
g16
S'-0.25'
p2542
tp2543
I1414
s(S'0.25'
p2544
g16
S'0.4'
p2545
g16
S'0.15'
p2546
tp2547
I1143
s(S'0.15'
p2548
g16
S'0.3'
p2549
g16
S'-0.3'
p2550
tp2551
I685
s(S'0.15'
p2552
g16
S'0.25'
p2553
g16
S'-0.25'
p2554
tp2555
I669
s(S'0.45'
p2556
g16
S'0.3'
p2557
g16
S'0.2'
p2558
tp2559
I1602
s(S'0.25'
p2560
g16
S'0.15'
p2561
g16
S'0.0'
p2562
tp2563
I1058
s(S'0.15'
p2564
g16
S'0.55'
p2565
g16
S'-0.15'
p2566
tp2567
I765
s(S'0.15'
p2568
g16
S'0.05'
p2569
g16
S'0.15'
p2570
tp2571
I607
s(S'0.3'
p2572
g16
S'0.35'
p2573
g16
S'0.2'
p2574
tp2575
I1305
s(S'0.2'
p2576
g16
S'0.6'
p2577
g16
S'-0.15'
p2578
tp2579
I987
s(S'0.05'
p2580
g16
S'0.25'
p2581
g16
S'-0.35'
p2582
tp2583
I237
s(S'0.15'
p2584
g16
S'0.1'
p2585
g16
S'0.3'
p2586
tp2587
I627
s(S'0.35'
p2588
g16
S'0.15'
p2589
g16
S'-0.05'
p2590
tp2591
I1392
s(S'0.3'
p2592
g16
S'0.1'
p2593
g16
S'0.0'
p2594
tp2595
I1228
s(S'0.15'
p2596
g16
S'0.35'
p2597
g16
S'0.05'
p2598
tp2599
I709
s(S'0.1'
p2600
g16
S'0.5'
p2601
g16
S'0.1'
p2602
tp2603
I536
s(S'0.25'
p2604
g16
S'0.3'
p2605
g16
S'0.4'
p2606
tp2607
I1117
s(S'0.35'
p2608
g16
S'0.15'
p2609
g16
S'0.35'
p2610
tp2611
I1400
s(S'0.15'
p2612
g16
S'0.6'
p2613
g16
S'-0.1'
p2614
tp2615
I776
s(S'0.15'
p2616
g16
S'-0.05'
p2617
g16
S'-0.1'
p2618
tp2619
I573
s(S'0.3'
p2620
g16
S'-0.0'
p2621
g16
S'-0.05'
p2622
tp2623
I1201
s(S'0.35'
p2624
g16
S'0.1'
p2625
g16
S'-0.1'
p2626
tp2627
I1378
s(S'0.15'
p2628
g16
S'0.15'
p2629
g16
S'0.4'
p2630
tp2631
I646
s(S'0.25'
p2632
g16
S'0.05'
p2633
g16
S'0.05'
p2634
tp2635
I1028
s(S'0.15'
p2636
g16
S'0.45'
p2637
g16
S'-0.3'
p2638
tp2639
I735
s(S'0.35'
p2640
g16
S'0.1'
p2641
g16
S'0.2'
p2642
tp2643
I1384
s(S'0.35'
p2644
g16
S'0.45'
p2645
g16
S'0.15'
p2646
tp2647
I1468
s(S'0.3'
p2648
g16
S'0.4'
p2649
g16
S'0.1'
p2650
tp2651
I1316
s(S'0.05'
p2652
g16
S'0.15'
p2653
g16
S'0.2'
p2654
tp2655
I212
s(S'0.1'
p2656
g16
S'0.3'
p2657
g16
S'-0.4'
p2658
tp2659
I459
s(S'-0.0'
p2660
g16
S'0.2'
p2661
g16
S'0.15'
p2662
tp2663
I46
s(S'0.3'
p2664
g16
S'0.2'
p2665
g16
S'0.4'
p2666
tp2667
I1265
s(S'0.2'
p2668
g16
S'0.2'
p2669
g16
S'-0.15'
p2670
tp2671
I869
s(S'0.2'
p2672
g16
S'0.55'
p2673
g16
S'-0.15'
p2674
tp2675
I977
s(S'0.05'
p2676
g16
S'0.5'
p2677
g16
S'0.3'
p2678
tp2679
I336
s(S'0.15'
p2680
g16
S'0.05'
p2681
g16
S'0.05'
p2682
tp2683
I605
s(S'0.05'
p2684
g16
S'0.5'
p2685
g16
S'-0.2'
p2686
tp2687
I326
s(S'0.05'
p2688
g16
S'0.25'
p2689
g16
S'0.45'
p2690
tp2691
I253
s(S'0.25'
p2692
g16
S'0.4'
p2693
g16
S'-0.25'
p2694
tp2695
I1135
s(S'0.15'
p2696
g16
S'0.1'
p2697
g16
S'-0.0'
p2698
tp2699
I621
s(S'0.1'
p2700
g16
S'0.5'
p2701
g16
S'0.15'
p2702
tp2703
I537
s(S'0.1'
p2704
g16
S'0.15'
p2705
g16
S'-0.2'
p2706
tp2707
I409
s(S'0.15'
p2708
g16
S'0.5'
p2709
g16
S'0.2'
p2710
tp2711
I760
s(S'0.4'
p2712
g16
S'0.15'
p2713
g16
S'0.2'
p2714
tp2715
I1510
s(S'0.1'
p2716
g16
S'0.25'
p2717
g16
S'-0.2'
p2718
tp2719
I445
s(S'0.25'
p2720
g16
S'0.2'
p2721
g16
S'-0.25'
p2722
tp2723
I1070
s(S'0.05'
p2724
g16
S'0.4'
p2725
g16
S'0.15'
p2726
tp2727
I300
s(S'0.2'
p2728
g16
S'0.2'
p2729
g16
S'0.4'
p2730
tp2731
I880
s(S'0.35'
p2732
g16
S'0.2'
p2733
g16
S'-0.05'
p2734
tp2735
I1405
s(S'0.15'
p2736
g16
S'0.1'
p2737
g16
S'0.45'
p2738
tp2739
I630
s(S'-0.0'
p2740
g16
S'0.05'
p2741
g16
S'0.25'
p2742
tp2743
I5
s(S'0.3'
p2744
g16
S'0.5'
p2745
g16
S'-0.05'
p2746
tp2747
I1336
s(S'0.3'
p2748
g16
S'0.3'
p2749
g16
S'0.1'
p2750
tp2751
I1289
s(S'-0.0'
p2752
g16
S'0.45'
p2753
g16
S'0.05'
p2754
tp2755
I131
s(S'0.05'
p2756
g16
S'0.15'
p2757
g16
S'0.25'
p2758
tp2759
I213
s(S'0.25'
p2760
g16
S'0.1'
p2761
g16
S'0.3'
p2762
tp2763
I1048
s(S'0.1'
p2764
g16
S'0.45'
p2765
g16
S'-0.05'
p2766
tp2767
I517
s(S'0.1'
p2768
g16
S'0.2'
p2769
g16
S'-0.2'
p2770
tp2771
I427
s(S'0.15'
p2772
g16
S'0.2'
p2773
g16
S'-0.05'
p2774
tp2775
I655
s(S'0.2'
p2776
g16
S'0.05'
p2777
g16
S'0.3'
p2778
tp2779
I828
s(S'0.25'
p2780
g16
S'0.35'
p2781
g16
S'0.15'
p2782
tp2783
I1128
s(S'0.05'
p2784
g16
S'0.05'
p2785
g16
S'0.3'
p2786
tp2787
I184
s(S'0.1'
p2788
g16
S'0.6'
p2789
g16
S'-0.15'
p2790
tp2791
I557
s(S'0.1'
p2792
g16
S'0.15'
p2793
g16
S'0.4'
p2794
tp2795
I421
s(S'0.35'
p2796
g16
S'0.15'
p2797
g16
S'0.3'
p2798
tp2799
I1399
s(S'0.4'
p2800
g16
S'0.35'
p2801
g16
S'-0.0'
p2802
tp2803
I1549
s(S'0.1'
p2804
g16
S'0.2'
p2805
g16
S'-0.15'
p2806
tp2807
I428
s(S'0.05'
p2808
g16
S'0.45'
p2809
g16
S'0.4'
p2810
tp2811
I322
s(S'0.05'
p2812
g16
S'0.2'
p2813
g16
S'-0.3'
p2814
tp2815
I220
s(S'0.1'
p2816
g16
S'0.35'
p2817
g16
S'-0.0'
p2818
tp2819
I484
s(S'0.15'
p2820
g16
S'0.45'
p2821
g16
S'0.3'
p2822
tp2823
I747
s(S'0.2'
p2824
g16
S'0.45'
p2825
g16
S'0.15'
p2826
tp2827
I957
s(S'0.05'
p2828
g16
S'0.5'
p2829
g16
S'0.25'
p2830
tp2831
I335
s(S'0.35'
p2832
g16
S'-0.0'
p2833
g16
S'-0.1'
p2834
tp2835
I1356
s(S'0.25'
p2836
g16
S'0.4'
p2837
g16
S'0.1'
p2838
tp2839
I1142
s(S'0.25'
p2840
g16
S'0.2'
p2841
g16
S'0.4'
p2842
tp2843
I1083
s(S'0.15'
p2844
g16
S'0.05'
p2845
g16
S'-0.35'
p2846
tp2847
I597
s(S'-0.0'
p2848
g16
S'0.3'
p2849
g16
S'-0.05'
p2850
tp2851
I77
s(S'-0.0'
p2852
g16
S'0.35'
p2853
g16
S'0.3'
p2854
tp2855
I102
s(S'0.2'
p2856
g16
S'0.2'
p2857
g16
S'-0.35'
p2858
tp2859
I865
s(S'0.4'
p2860
g16
S'0.0'
p2861
g16
S'-0.05'
p2862
tp2863
I1479
s(S'0.1'
p2864
g16
S'0.15'
p2865
g16
S'-0.35'
p2866
tp2867
I406
s(S'0.15'
p2868
g16
S'0.4'
p2869
g16
S'-0.2'
p2870
tp2871
I721
s(S'0.1'
p2872
g16
S'0.15'
p2873
g16
S'-0.15'
p2874
tp2875
I410
s(S'0.25'
p2876
g16
S'0.2'
p2877
g16
S'0.45'
p2878
tp2879
I1084
s(S'0.1'
p2880
g16
S'0.25'
p2881
g16
S'0.2'
p2882
tp2883
I453
s(S'0.3'
p2884
g16
S'-0.05'
p2885
g16
S'0.15'
p2886
tp2887
I1195
s(S'0.1'
p2888
g16
S'0.1'
p2889
g16
S'0.15'
p2890
tp2891
I399
s(S'-0.0'
p2892
g16
S'0.4'
p2893
g16
S'0.4'
p2894
tp2895
I121
s(S'0.15'
p2896
g16
S'0.3'
p2897
g16
S'0.4'
p2898
tp2899
I699
s(S'0.05'
p2900
g16
S'0.35'
p2901
g16
S'0.3'
p2902
tp2903
I286
s(S'0.35'
p2904
g16
S'0.5'
p2905
g16
S'-0.05'
p2906
tp2907
I1472
s(S'0.2'
p2908
g16
S'0.25'
p2909
g16
S'0.15'
p2910
tp2911
I892
s(S'0.25'
p2912
g16
S'0.1'
p2913
g16
S'-0.3'
p2914
tp2915
I1036
s(S'0.2'
p2916
g16
S'0.45'
p2917
g16
S'0.1'
p2918
tp2919
I956
s(S'0.2'
p2920
g16
S'0.35'
p2921
g16
S'0.15'
p2922
tp2923
I926
s(S'0.3'
p2924
g16
S'0.55'
p2925
g16
S'-0.1'
p2926
tp2927
I1344
s(S'-0.0'
p2928
g16
S'0.5'
p2929
g16
S'0.3'
p2930
tp2931
I152
s(S'0.15'
p2932
g16
S'0.25'
p2933
g16
S'-0.4'
p2934
tp2935
I666
s(S'-0.0'
p2936
g16
S'0.45'
p2937
g16
S'0.4'
p2938
tp2939
I138
s(S'0.1'
p2940
g16
S'0.05'
p2941
g16
S'0.05'
p2942
tp2943
I380
s(S'0.3'
p2944
g16
S'0.25'
p2945
g16
S'0.3'
p2946
tp2947
I1278
s(S'0.2'
p2948
g16
S'0.6'
p2949
g16
S'0.25'
p2950
tp2951
I995
s(S'0.25'
p2952
g16
S'0.05'
p2953
g16
S'0.0'
p2954
tp2955
I1027
s(S'0.4'
p2956
g16
S'0.05'
p2957
g16
S'0.1'
p2958
tp2959
I1488
s(S'0.2'
p2960
g16
S'0.55'
p2961
g16
S'0.3'
p2962
tp2963
I986
s(S'0.25'
p2964
g16
S'0.15'
p2965
g16
S'0.05'
p2966
tp2967
I1059
s(S'0.25'
p2968
g16
S'0.4'
p2969
g16
S'-0.1'
p2970
tp2971
I1138
s(S'0.1'
p2972
g16
S'0.4'
p2973
g16
S'-0.15'
p2974
tp2975
I498
s(S'0.3'
p2976
g16
S'0.2'
p2977
g16
S'-0.25'
p2978
tp2979
I1252
s(S'0.05'
p2980
g16
S'0.3'
p2981
g16
S'0.25'
p2982
tp2983
I267
s(S'0.2'
p2984
g16
S'-0.05'
p2985
g16
S'-0.0'
p2986
tp2987
I795
s(S'0.1'
p2988
g16
S'0.05'
p2989
g16
S'-0.05'
p2990
tp2991
I378
s(S'0.3'
p2992
g16
S'0.4'
p2993
g16
S'-0.2'
p2994
tp2995
I1310
s(S'0.25'
p2996
g16
S'0.15'
p2997
g16
S'-0.05'
p2998
tp2999
I1057
s(S'0.2'
p3000
g16
S'0.15'
p3001
g16
S'0.05'
p3002
tp3003
I856
s(S'0.25'
p3004
g16
S'-0.0'
p3005
g16
S'0.15'
p3006
tp3007
I1016
s(S'0.15'
p3008
g16
S'0.35'
p3009
g16
S'0.25'
p3010
tp3011
I713
s(S'0.05'
p3012
g16
S'0.1'
p3013
g16
S'-0.1'
p3014
tp3015
I192
s(S'0.35'
p3016
g16
S'0.2'
p3017
g16
S'0.25'
p3018
tp3019
I1411
s(S'0.2'
p3020
g16
S'-0.0'
p3021
g16
S'-0.1'
p3022
tp3023
I805
s(S'0.1'
p3024
g16
S'0.35'
p3025
g16
S'0.05'
p3026
tp3027
I485
s(S'0.1'
p3028
g16
S'0.2'
p3029
g16
S'0.2'
p3030
tp3031
I435
s(S'0.3'
p3032
g16
S'0.45'
p3033
g16
S'0.0'
p3034
tp3035
I1326
s(S'0.1'
p3036
g16
S'0.35'
p3037
g16
S'-0.1'
p3038
tp3039
I482
s(S'-0.0'
p3040
g16
S'0.3'
p3041
g16
S'-0.35'
p3042
tp3043
I71
s(S'0.0'
p3044
g16
S'-0.0'
p3045
g16
S'0.45'
p3046
tp3047
I2
s(S'0.1'
p3048
g16
S'0.6'
p3049
g16
S'0.3'
p3050
tp3051
I566
s(S'0.25'
p3052
g16
S'0.25'
p3053
g16
S'0.1'
p3054
tp3055
I1094
s(S'0.05'
p3056
g16
S'0.45'
p3057
g16
S'0.35'
p3058
tp3059
I321
s(S'0.2'
p3060
g16
S'0.2'
p3061
g16
S'-0.05'
p3062
tp3063
I871
s(S'0.0'
p3064
g16
S'0.3'
p3065
g16
S'-0.4'
p3066
tp3067
I70
s(S'0.2'
p3068
g16
S'0.05'
p3069
g16
S'-0.1'
p3070
tp3071
I820
s(S'0.3'
p3072
g16
S'0.5'
p3073
g16
S'0.2'
p3074
tp3075
I1341
s(S'0.35'
p3076
g16
S'0.05'
p3077
g16
S'0.15'
p3078
tp3079
I1371
s(S'0.1'
p3080
g16
S'0.15'
p3081
g16
S'-0.05'
p3082
tp3083
I412
s(S'0.15'
p3084
g16
S'0.15'
p3085
g16
S'-0.35'
p3086
tp3087
I631
s(S'-0.0'
p3088
g16
S'0.2'
p3089
g16
S'0.45'
p3090
tp3091
I52
s(S'0.15'
p3092
g16
S'0.25'
p3093
g16
S'-0.05'
p3094
tp3095
I673
s(S'0.15'
p3096
g16
S'0.15'
p3097
g16
S'-0.15'
p3098
tp3099
I635
s(S'0.25'
p3100
g16
S'0.25'
p3101
g16
S'-0.25'
p3102
tp3103
I1087
s(S'0.45'
p3104
g16
S'0.2'
p3105
g16
S'0.0'
p3106
tp3107
I1584
s(S'0.35'
p3108
g16
S'0.4'
p3109
g16
S'-0.05'
p3110
tp3111
I1454
s(S'0.35'
p3112
g16
S'0.3'
p3113
g16
S'0.05'
p3114
tp3115
I1433
s(S'0.2'
p3116
g16
S'0.1'
p3117
g16
S'0.35'
p3118
tp3119
I845
s(S'0.35'
p3120
g16
S'0.35'
p3121
g16
S'-0.2'
p3122
tp3123
I1440
s(S'0.15'
p3124
g16
S'0.6'
p3125
g16
S'0.15'
p3126
tp3127
I781
s(S'0.1'
p3128
g16
S'0.45'
p3129
g16
S'-0.2'
p3130
tp3131
I514
s(S'-0.0'
p3132
g16
S'0.6'
p3133
g16
S'-0.1'
p3134
tp3135
I170
s(S'0.1'
p3136
g16
S'0.45'
p3137
g16
S'0.3'
p3138
tp3139
I524
s(S'0.35'
p3140
g16
S'-0.05'
p3141
g16
S'0.15'
p3142
tp3143
I1354
s(S'0.3'
p3144
g16
S'0.3'
p3145
g16
S'-0.0'
p3146
tp3147
I1287
s(S'0.15'
p3148
g16
S'0.1'
p3149
g16
S'0.05'
p3150
tp3151
I622
s(S'0.4'
p3152
g16
S'0.2'
p3153
g16
S'0.15'
p3154
tp3155
I1520
s(S'0.3'
p3156
g16
S'0.15'
p3157
g16
S'-0.25'
p3158
tp3159
I1237
s(S'0.05'
p3160
g16
S'0.25'
p3161
g16
S'0.35'
p3162
tp3163
I251
s(S'0.45'
p3164
g16
S'0.3'
p3165
g16
S'0.1'
p3166
tp3167
I1600
s(S'0.05'
p3168
g16
S'0.5'
p3169
g16
S'-0.05'
p3170
tp3171
I329
s(S'0.3'
p3172
g16
S'0.35'
p3173
g16
S'-0.0'
p3174
tp3175
I1301
s(S'0.35'
p3176
g16
S'0.15'
p3177
g16
S'0.1'
p3178
tp3179
I1395
s(S'0.15'
p3180
g16
S'-0.0'
p3181
g16
S'-0.0'
p3182
tp3183
I588
s(S'-0.0'
p3184
g16
S'0.4'
p3185
g16
S'0.35'
p3186
tp3187
I120
s(S'0.2'
p3188
g16
S'0.35'
p3189
g16
S'0.3'
p3190
tp3191
I929
s(S'0.35'
p3192
g16
S'0.1'
p3193
g16
S'-0.15'
p3194
tp3195
I1377
s(S'0.2'
p3196
g16
S'-0.05'
p3197
g16
S'0.3'
p3198
tp3199
I801
s(S'0.1'
p3200
g16
S'0.5'
p3201
g16
S'-0.1'
p3202
tp3203
I532
s(S'-0.0'
p3204
g16
S'0.3'
p3205
g16
S'-0.2'
p3206
tp3207
I74
s(S'0.25'
p3208
g16
S'0.45'
p3209
g16
S'0.15'
p3210
tp3211
I1157
s(S'0.15'
p3212
g16
S'0.15'
p3213
g16
S'0.25'
p3214
tp3215
I643
s(S'0.05'
p3216
g16
S'0.6'
p3217
g16
S'0.05'
p3218
tp3219
I357
s(S'0.15'
p3220
g16
S'0.2'
p3221
g16
S'0.25'
p3222
tp3223
I661
s(S'0.2'
p3224
g16
S'0.55'
p3225
g16
S'-0.1'
p3226
tp3227
I978
s(S'0.35'
p3228
g16
S'0.1'
p3229
g16
S'-0.2'
p3230
tp3231
I1376
s(S'0.05'
p3232
g16
S'0.25'
p3233
g16
S'-0.3'
p3234
tp3235
I238
s(S'0.3'
p3236
g16
S'-0.05'
p3237
g16
S'0.2'
p3238
tp3239
I1196
s(S'0.25'
p3240
g16
S'0.1'
p3241
g16
S'-0.05'
p3242
tp3243
I1041
s(S'0.0'
p3244
g16
S'0.2'
p3245
g16
S'0.2'
p3246
tp3247
I47
s(S'0.05'
p3248
g16
S'0.15'
p3249
g16
S'0.45'
p3250
tp3251
I217
s(S'0.15'
p3252
g16
S'0.35'
p3253
g16
S'-0.0'
p3254
tp3255
I708
s(S'0.3'
p3256
g16
S'0.25'
p3257
g16
S'-0.0'
p3258
tp3259
I1272
s(S'0.2'
p3260
g16
S'-0.0'
p3261
g16
S'-0.05'
p3262
tp3263
I806
s(S'0.1'
p3264
g16
S'0.3'
p3265
g16
S'-0.1'
p3266
tp3267
I465
s(S'0.15'
p3268
g16
S'0.5'
p3269
g16
S'0.15'
p3270
tp3271
I759
s(S'0.15'
p3272
g16
S'0.4'
p3273
g16
S'-0.25'
p3274
tp3275
I720
s(S'0.3'
p3276
g16
S'0.15'
p3277
g16
S'0.4'
p3278
tp3279
I1250
s(S'0.05'
p3280
g16
S'0.25'
p3281
g16
S'-0.25'
p3282
tp3283
I239
s(S'0.25'
p3284
g16
S'0.2'
p3285
g16
S'-0.1'
p3286
tp3287
I1073
s(S'0.05'
p3288
g16
S'0.2'
p3289
g16
S'-0.25'
p3290
tp3291
I221
s(S'0.15'
p3292
g16
S'0.15'
p3293
g16
S'-0.05'
p3294
tp3295
I637
s(S'0.15'
p3296
g16
S'0.25'
p3297
g16
S'-0.35'
p3298
tp3299
I667
s(S'0.4'
p3300
g16
S'0.15'
p3301
g16
S'0.1'
p3302
tp3303
I1508
s(S'0.2'
p3304
g16
S'-0.1'
p3305
g16
S'0.05'
p3306
tp3307
I787
s(S'0.15'
p3308
g16
S'0.45'
p3309
g16
S'-0.15'
p3310
tp3311
I738
s(S'0.1'
p3312
g16
S'0.25'
p3313
g16
S'-0.1'
p3314
tp3315
I447
s(S'0.4'
p3316
g16
S'0.15'
p3317
g16
S'-0.2'
p3318
tp3319
I1502
s(S'0.15'
p3320
g16
S'0.4'
p3321
g16
S'0.1'
p3322
tp3323
I727
s(S'0.05'
p3324
g16
S'0.35'
p3325
g16
S'-0.0'
p3326
tp3327
I280
s(S'0.15'
p3328
g16
S'0.15'
p3329
g16
S'0.35'
p3330
tp3331
I645
s(S'0.05'
p3332
g16
S'0.3'
p3333
g16
S'-0.35'
p3334
tp3335
I255
s(S'0.25'
p3336
g16
S'0.25'
p3337
g16
S'0.3'
p3338
tp3339
I1098
s(S'0.4'
p3340
g16
S'0.4'
p3341
g16
S'-0.1'
p3342
tp3343
I1556
s(S'0.1'
p3344
g16
S'0.1'
p3345
g16
S'0.4'
p3346
tp3347
I404
s(S'0.05'
p3348
g16
S'0.45'
p3349
g16
S'-0.35'
p3350
tp3351
I307
s(S'0.4'
p3352
g16
S'0.4'
p3353
g16
S'0.0'
p3354
tp3355
I1558
s(S'0.05'
p3356
g16
S'0.2'
p3357
g16
S'-0.05'
p3358
tp3359
I225
s(S'-0.0'
p3360
g16
S'0.05'
p3361
g16
S'0.4'
p3362
tp3363
I8
s(S'0.15'
p3364
g16
S'-0.0'
p3365
g16
S'-0.15'
p3366
tp3367
I585
s(S'0.4'
p3368
g16
S'0.2'
p3369
g16
S'-0.15'
p3370
tp3371
I1514
s(S'0.05'
p3372
g16
S'0.5'
p3373
g16
S'0.35'
p3374
tp3375
I337
s(S'0.2'
p3376
g16
S'0.35'
p3377
g16
S'0.45'
p3378
tp3379
I932
s(S'0.35'
p3380
g16
S'0.3'
p3381
g16
S'-0.15'
p3382
tp3383
I1429
s(S'0.4'
p3384
g16
S'0.3'
p3385
g16
S'0.0'
p3386
tp3387
I1539
s(S'0.2'
p3388
g16
S'0.2'
p3389
g16
S'0.2'
p3390
tp3391
I876
s(S'0.3'
p3392
g16
S'0.5'
p3393
g16
S'0.0'
p3394
tp3395
I1337
s(S'-0.0'
p3396
g16
S'0.05'
p3397
g16
S'0.35'
p3398
tp3399
I7
s(S'0.1'
p3400
g16
S'0.15'
p3401
g16
S'0.2'
p3402
tp3403
I417
s(S'0.05'
p3404
g16
S'0.45'
p3405
g16
S'0.1'
p3406
tp3407
I316
s(S'0.05'
p3408
g16
S'0.2'
p3409
g16
S'-0.0'
p3410
tp3411
I226
s(S'0.25'
p3412
g16
S'0.25'
p3413
g16
S'0.25'
p3414
tp3415
I1097
s(S'0.4'
p3416
g16
S'0.4'
p3417
g16
S'0.15'
p3418
tp3419
I1561
s(S'0.3'
p3420
g16
S'0.25'
p3421
g16
S'-0.05'
p3422
tp3423
I1271
s(S'0.35'
p3424
g16
S'0.05'
p3425
g16
S'0.2'
p3426
tp3427
I1372
s(S'0.15'
p3428
g16
S'0.6'
p3429
g16
S'0.1'
p3430
tp3431
I780
s(S'0.25'
p3432
g16
S'0.2'
p3433
g16
S'0.1'
p3434
tp3435
I1077
s(S'-0.0'
p3436
g16
S'0.35'
p3437
g16
S'-0.15'
p3438
tp3439
I93
s(S'0.25'
p3440
g16
S'0.3'
p3441
g16
S'0.05'
p3442
tp3443
I1110
s(S'0.3'
p3444
g16
S'0.3'
p3445
g16
S'-0.1'
p3446
tp3447
I1285
s(S'0.4'
p3448
g16
S'0.05'
p3449
g16
S'-0.1'
p3450
tp3451
I1484
s(S'0.15'
p3452
g16
S'0.45'
p3453
g16
S'-0.25'
p3454
tp3455
I736
s(S'-0.0'
p3456
g16
S'0.15'
p3457
g16
S'0.15'
p3458
tp3459
I29
s(S'0.2'
p3460
g16
S'-0.05'
p3461
g16
S'-0.15'
p3462
tp3463
I792
s(S'0.15'
p3464
g16
S'0.2'
p3465
g16
S'-0.4'
p3466
tp3467
I648
s(S'0.15'
p3468
g16
S'0.4'
p3469
g16
S'-0.1'
p3470
tp3471
I723
s(S'0.15'
p3472
g16
S'0.25'
p3473
g16
S'0.3'
p3474
tp3475
I680
s(S'0.3'
p3476
g16
S'0.45'
p3477
g16
S'-0.05'
p3478
tp3479
I1325
s(S'0.1'
p3480
g16
S'0.25'
p3481
g16
S'0.1'
p3482
tp3483
I451
s(S'0.35'
p3484
g16
S'0.4'
p3485
g16
S'0.3'
p3486
tp3487
I1461
s(S'-0.0'
p3488
g16
S'0.4'
p3489
g16
S'0.1'
p3490
tp3491
I115
s(S'0.35'
p3492
g16
S'0.15'
p3493
g16
S'0.25'
p3494
tp3495
I1398
s(S'0.25'
p3496
g16
S'0.15'
p3497
g16
S'-0.2'
p3498
tp3499
I1054
s(S'0.15'
p3500
g16
S'0.05'
p3501
g16
S'-0.3'
p3502
tp3503
I598
s(S'0.35'
p3504
g16
S'0.4'
p3505
g16
S'0.05'
p3506
tp3507
I1456
s(S'0.35'
p3508
g16
S'0.35'
p3509
g16
S'-0.05'
p3510
tp3511
I1443
s(S'0.2'
p3512
g16
S'0.3'
p3513
g16
S'0.2'
p3514
tp3515
I910
s(S'-0.0'
p3516
g16
S'0.55'
p3517
g16
S'0.3'
p3518
tp3519
I166
s(S'0.2'
p3520
g16
S'0.6'
p3521
g16
S'0.1'
p3522
tp3523
I992
s(S'0.1'
p3524
g16
S'0.2'
p3525
g16
S'0.05'
p3526
tp3527
I432
s(S'0.1'
p3528
g16
S'0.55'
p3529
g16
S'0.2'
p3530
tp3531
I552
s(S'0.3'
p3532
g16
S'0.0'
p3533
g16
S'0.25'
p3534
tp3535
I1207
s(S'-0.0'
p3536
g16
S'0.4'
p3537
g16
S'-0.25'
p3538
tp3539
I108
s(S'0.25'
p3540
g16
S'0.5'
p3541
g16
S'0.3'
p3542
tp3543
I1173
s(S'0.3'
p3544
g16
S'0.5'
p3545
g16
S'0.05'
p3546
tp3547
I1338
s(S'0.2'
p3548
g16
S'0.05'
p3549
g16
S'-0.15'
p3550
tp3551
I819
s(S'0.2'
p3552
g16
S'0.2'
p3553
g16
S'0.15'
p3554
tp3555
I875
s(S'0.25'
p3556
g16
S'0.25'
p3557
g16
S'-0.05'
p3558
tp3559
I1091
s(S'0.4'
p3560
g16
S'0.05'
p3561
g16
S'0.2'
p3562
tp3563
I1490
s(S'-0.0'
p3564
g16
S'0.15'
p3565
g16
S'-0.1'
p3566
tp3567
I26
s(S'0.05'
p3568
g16
S'0.6'
p3569
g16
S'0.3'
p3570
tp3571
I362
s(S'0.2'
p3572
g16
S'-0.0'
p3573
g16
S'-0.15'
p3574
tp3575
I804
s(S'0.25'
p3576
g16
S'-0.05'
p3577
g16
S'-0.1'
p3578
tp3579
I999
s(S'0.05'
p3580
g16
S'0.55'
p3581
g16
S'-0.15'
p3582
tp3583
I341
s(S'-0.0'
p3584
g16
S'0.25'
p3585
g16
S'0.1'
p3586
tp3587
I62
s(S'0.25'
p3588
g16
S'0.2'
p3589
g16
S'-0.15'
p3590
tp3591
I1072
s(S'0.2'
p3592
g16
S'0.35'
p3593
g16
S'-0.2'
p3594
tp3595
I919
s(S'0.15'
p3596
g16
S'0.05'
p3597
g16
S'0.2'
p3598
tp3599
I608
s(S'0.05'
p3600
g16
S'0.35'
p3601
g16
S'0.2'
p3602
tp3603
I284
s(S'0.05'
p3604
g16
S'0.2'
p3605
g16
S'0.25'
p3606
tp3607
I231
s(S'0.2'
p3608
g16
S'0.15'
p3609
g16
S'-0.3'
p3610
tp3611
I849
s(S'0.1'
p3612
g16
S'0.3'
p3613
g16
S'0.0'
p3614
tp3615
I467
s(S'0.4'
p3616
g16
S'0.1'
p3617
g16
S'-0.15'
p3618
tp3619
I1493
s(S'0.4'
p3620
g16
S'0.3'
p3621
g16
S'-0.05'
p3622
tp3623
I1538
s(S'0.2'
p3624
g16
S'0.05'
p3625
g16
S'-0.2'
p3626
tp3627
I818
s(S'0.45'
p3628
g16
S'0.15'
p3629
g16
S'0.2'
p3630
tp3631
I1581
s(S'0.15'
p3632
g16
S'0.3'
p3633
g16
S'0.05'
p3634
tp3635
I692
s(S'0.2'
p3636
g16
S'-0.05'
p3637
g16
S'0.05'
p3638
tp3639
I796
s(S'0.25'
p3640
g16
S'0.25'
p3641
g16
S'0.35'
p3642
tp3643
I1099
s(S'0.2'
p3644
g16
S'-0.0'
p3645
g16
S'-0.2'
p3646
tp3647
I803
s(S'0.0'
p3648
g16
S'0.25'
p3649
g16
S'-0.2'
p3650
tp3651
I57
s(S'0.3'
p3652
g16
S'0.05'
p3653
g16
S'0.3'
p3654
tp3655
I1220
s(S'0.05'
p3656
g16
S'0.2'
p3657
g16
S'0.05'
p3658
tp3659
I227
s(S'0.15'
p3660
g16
S'0.1'
p3661
g16
S'-0.25'
p3662
tp3663
I616
s(S'0.3'
p3664
g16
S'0.15'
p3665
g16
S'0.05'
p3666
tp3667
I1243
s(S'0.25'
p3668
g16
S'0.45'
p3669
g16
S'0.3'
p3670
tp3671
I1160
s(S'-0.0'
p3672
g16
S'0.1'
p3673
g16
S'0.2'
p3674
tp3675
I15
s(S'0.15'
p3676
g16
S'0.15'
p3677
g16
S'0.1'
p3678
tp3679
I640
s(S'0.3'
p3680
g16
S'0.1'
p3681
g16
S'-0.05'
p3682
tp3683
I1227
s(S'0.1'
p3684
g16
S'-0.0'
p3685
g16
S'0.2'
p3686
tp3687
I369
s(S'0.05'
p3688
g16
S'0.4'
p3689
g16
S'-0.0'
p3690
tp3691
I297
s(S'0.15'
p3692
g16
S'0.4'
p3693
g16
S'0.2'
p3694
tp3695
I729
s(S'-0.0'
p3696
g16
S'0.5'
p3697
g16
S'-0.0'
p3698
tp3699
I146
s(S'0.35'
p3700
g16
S'0.15'
p3701
g16
S'-0.0'
p3702
tp3703
I1393
s(S'0.3'
p3704
g16
S'0.2'
p3705
g16
S'0.3'
p3706
tp3707
I1263
s(S'0.15'
p3708
g16
S'0.55'
p3709
g16
S'0.1'
p3710
tp3711
I770
s(S'0.0'
p3712
g16
S'0.4'
p3713
g16
S'-0.3'
p3714
tp3715
I107
s(S'0.15'
p3716
g16
S'0.5'
p3717
g16
S'0.25'
p3718
tp3719
I761
s(S'0.0'
p3720
g16
S'0.15'
p3721
g16
S'-0.15'
p3722
tp3723
I25
s(S'-0.0'
p3724
g16
S'0.35'
p3725
g16
S'-0.0'
p3726
tp3727
I96
s(S'0.1'
p3728
g16
S'0.5'
p3729
g16
S'-0.15'
p3730
tp3731
I531
s(S'0.25'
p3732
g16
S'-0.05'
p3733
g16
S'0.1'
p3734
tp3735
I1003
s(S'0.05'
p3736
g16
S'0.6'
p3737
g16
S'0.15'
p3738
tp3739
I359
s(S'0.1'
p3740
g16
S'0.35'
p3741
g16
S'-0.25'
p3742
tp3743
I479
s(S'0.1'
p3744
g16
S'0.55'
p3745
g16
S'0.25'
p3746
tp3747
I553
s(S'0.15'
p3748
g16
S'0.2'
p3749
g16
S'0.35'
p3750
tp3751
I663
s(S'0.15'
p3752
g16
S'0.25'
p3753
g16
S'0.25'
p3754
tp3755
I679
s(S'0.2'
p3756
g16
S'0.05'
p3757
g16
S'0.2'
p3758
tp3759
I826
s(S'0.1'
p3760
g16
S'0.45'
p3761
g16
S'-0.25'
p3762
tp3763
I513
s(S'0.35'
p3764
g16
S'0.15'
p3765
g16
S'0.2'
p3766
tp3767
I1397
s(S'0.4'
p3768
g16
S'0.4'
p3769
g16
S'-0.05'
p3770
tp3771
I1557
s(S'0.05'
p3772
g16
S'0.55'
p3773
g16
S'0.2'
p3774
tp3775
I348
s(S'-0.0'
p3776
g16
S'0.0'
p3777
g16
S'0.4'
p3778
tp3779
I1
s(S'0.0'
p3780
g16
S'0.25'
p3781
g16
S'0.2'
p3782
tp3783
I64
s(S'0.0'
p3784
g16
S'0.1'
p3785
g16
S'-0.2'
p3786
tp3787
I10
s(S'0.3'
p3788
g16
S'0.15'
p3789
g16
S'-0.1'
p3790
tp3791
I1240
s(S'0.25'
p3792
g16
S'0.5'
p3793
g16
S'-0.15'
p3794
tp3795
I1164
s(S'0.2'
p3796
g16
S'0.55'
p3797
g16
S'0.05'
p3798
tp3799
I981
s(S'0.05'
p3800
g16
S'0.15'
p3801
g16
S'-0.0'
p3802
tp3803
I208
s(S'0.45'
p3804
g16
S'0.35'
p3805
g16
S'-0.05'
p3806
tp3807
I1603
s(S'0.05'
p3808
g16
S'0.6'
p3809
g16
S'-0.1'
p3810
tp3811
I354
s(S'0.3'
p3812
g16
S'0.1'
p3813
g16
S'-0.25'
p3814
tp3815
I1223
s(S'0.25'
p3816
g16
S'0.05'
p3817
g16
S'-0.05'
p3818
tp3819
I1026
s(S'-0.0'
p3820
g16
S'0.45'
p3821
g16
S'0.35'
p3822
tp3823
I137
s(S'0.25'
p3824
g16
S'0.25'
p3825
g16
S'0.05'
p3826
tp3827
I1093
s(S'0.05'
p3828
g16
S'0.35'
p3829
g16
S'-0.35'
p3830
tp3831
I273
s(S'-0.0'
p3832
g16
S'0.4'
p3833
g16
S'0.25'
p3834
tp3835
I118
s(S'0.05'
p3836
g16
S'0.25'
p3837
g16
S'-0.4'
p3838
tp3839
I236
s(S'0.3'
p3840
g16
S'-0.05'
p3841
g16
S'0.1'
p3842
tp3843
I1194
s(S'0.15'
p3844
g16
S'0.3'
p3845
g16
S'0.35'
p3846
tp3847
I698
s(S'0.25'
p3848
g16
S'0.35'
p3849
g16
S'0.0'
p3850
tp3851
I1125
s(S'0.1'
p3852
g16
S'0.55'
p3853
g16
S'-0.15'
p3854
tp3855
I545
s(S'-0.0'
p3856
g16
S'0.05'
p3857
g16
S'0.15'
p3858
tp3859
I3
s(S'0.45'
p3860
g16
S'0.25'
p3861
g16
S'0.15'
p3862
tp3863
I1594
s(S'0.2'
p3864
g16
S'0.35'
p3865
g16
S'0.0'
p3866
tp3867
I923
s(S'0.05'
p3868
g16
S'0.35'
p3869
g16
S'0.25'
p3870
tp3871
I285
s(S'0.3'
p3872
g16
S'0.25'
p3873
g16
S'-0.3'
p3874
tp3875
I1266
s(S'-0.0'
p3876
g16
S'0.45'
p3877
g16
S'-0.0'
p3878
tp3879
I130
s(S'0.05'
p3880
g16
S'0.15'
p3881
g16
S'-0.05'
p3882
tp3883
I207
s(S'0.25'
p3884
g16
S'0.2'
p3885
g16
S'-0.0'
p3886
tp3887
I1075
s(S'0.1'
p3888
g16
S'0.3'
p3889
g16
S'-0.2'
p3890
tp3891
I463
s(S'0.2'
p3892
g16
S'0.15'
p3893
g16
S'0.1'
p3894
tp3895
I857
s(S'0.35'
p3896
g16
S'0.25'
p3897
g16
S'0.2'
p3898
tp3899
I1423
s(S'-0.0'
p3900
g16
S'0.3'
p3901
g16
S'0.3'
p3902
tp3903
I84
s(S'0.3'
p3904
g16
S'0.15'
p3905
g16
S'0.1'
p3906
tp3907
I1244
s(S'0.25'
p3908
g16
S'0.4'
p3909
g16
S'0.25'
p3910
tp3911
I1145
s(S'0.3'
p3912
g16
S'0.25'
p3913
g16
S'0.25'
p3914
tp3915
I1277
s(S'0.35'
p3916
g16
S'0.35'
p3917
g16
S'0.1'
p3918
tp3919
I1446
s(S'0.3'
p3920
g16
S'0.3'
p3921
g16
S'-0.05'
p3922
tp3923
I1286
s(S'0.1'
p3924
g16
S'0.4'
p3925
g16
S'0.05'
p3926
tp3927
I502
s(S'0.1'
p3928
g16
S'0.25'
p3929
g16
S'-0.4'
p3930
tp3931
I441
s(S'0.15'
p3932
g16
S'0.2'
p3933
g16
S'0.1'
p3934
tp3935
I658
s(S'0.4'
p3936
g16
S'0.15'
p3937
g16
S'-0.1'
p3938
tp3939
I1504
s(S'0.25'
p3940
g16
S'0.05'
p3941
g16
S'0.35'
p3942
tp3943
I1034
s(S'0.15'
p3944
g16
S'0.2'
p3945
g16
S'-0.0'
p3946
tp3947
I656
s(S'0.15'
p3948
g16
S'0.4'
p3949
g16
S'0.4'
p3950
tp3951
I733
s(S'0.15'
p3952
g16
S'0.05'
p3953
g16
S'-0.05'
p3954
tp3955
I603
s(S'0.25'
p3956
g16
S'-0.0'
p3957
g16
S'0.2'
p3958
tp3959
I1017
s(S'-0.0'
p3960
g16
S'0.1'
p3961
g16
S'0.25'
p3962
tp3963
I16
s(S'0.15'
p3964
g16
S'0.3'
p3965
g16
S'0.1'
p3966
tp3967
I693
s(S'0.1'
p3968
g16
S'0.0'
p3969
g16
S'0.15'
p3970
tp3971
I368
s(S'-0.0'
p3972
g16
S'0.1'
p3973
g16
S'0.35'
p3974
tp3975
I18
s(S'0.1'
p3976
g16
S'-0.0'
p3977
g16
S'0.25'
p3978
tp3979
I370
s(S'0.45'
p3980
g16
S'0.3'
p3981
g16
S'0.15'
p3982
tp3983
I1601
s(S'-0.0'
p3984
g16
S'0.25'
p3985
g16
S'-0.1'
p3986
tp3987
I59
s(S'0.3'
p3988
g16
S'0.1'
p3989
g16
S'0.05'
p3990
tp3991
I1229
s(S'0.1'
p3992
g16
S'0.3'
p3993
g16
S'0.05'
p3994
tp3995
I468
s(S'0.15'
p3996
g16
S'0.25'
p3997
g16
S'-0.3'
p3998
tp3999
I668
s(S'-0.0'
p4000
g16
S'0.45'
p4001
g16
S'0.1'
p4002
tp4003
I132
s(S'0.3'
p4004
g16
S'0.45'
p4005
g16
S'-0.2'
p4006
tp4007
I1322
s(S'0.15'
p4008
g16
S'0.3'
p4009
g16
S'-0.25'
p4010
tp4011
I686
s(S'-0.0'
p4012
g16
S'0.35'
p4013
g16
S'0.35'
p4014
tp4015
I103
s(S'0.3'
p4016
g16
S'0.1'
p4017
g16
S'0.15'
p4018
tp4019
I1231
s(S'-0.0'
p4020
g16
S'0.4'
p4021
g16
S'-0.05'
p4022
tp4023
I112
s(S'0.4'
p4024
g16
S'0.3'
p4025
g16
S'0.15'
p4026
tp4027
I1542
s(S'-0.0'
p4028
g16
S'0.4'
p4029
g16
S'-0.1'
p4030
tp4031
I111
s(S'0.35'
p4032
g16
S'0.4'
p4033
g16
S'-0.1'
p4034
tp4035
I1453
s(S'0.4'
p4036
g16
S'0.3'
p4037
g16
S'0.3'
p4038
tp4039
I1545
s(S'0.1'
p4040
g16
S'0.4'
p4041
g16
S'-0.35'
p4042
tp4043
I494
s(S'-0.0'
p4044
g16
S'0.5'
p4045
g16
S'0.35'
p4046
tp4047
I153
s(S'0.15'
p4048
g16
S'-0.1'
p4049
g16
S'0.2'
p4050
tp4051
I570
s(S'0.05'
p4052
g16
S'0.2'
p4053
g16
S'0.2'
p4054
tp4055
I230
s(S'0.15'
p4056
g16
S'0.35'
p4057
g16
S'0.15'
p4058
tp4059
I711
s(S'0.2'
p4060
g16
S'0.6'
p4061
g16
S'-0.1'
p4062
tp4063
I988
s(S'0.1'
p4064
g16
S'0.1'
p4065
g16
S'-0.3'
p4066
tp4067
I390
s(S'0.1'
p4068
g16
S'0.45'
p4069
g16
S'0.15'
p4070
tp4071
I521
s(S'0.05'
p4072
g16
S'0.35'
p4073
g16
S'0.35'
p4074
tp4075
I287
s(S'0.25'
p4076
g16
S'0.4'
p4077
g16
S'0.0'
p4078
tp4079
I1140
s(S'0.15'
p4080
g16
S'0.5'
p4081
g16
S'-0.25'
p4082
tp4083
I751
s(S'0.35'
p4084
g16
S'0.25'
p4085
g16
S'-0.2'
p4086
tp4087
I1415
s(S'0.1'
p4088
g16
S'0.05'
p4089
g16
S'0.3'
p4090
tp4091
I385
s(S'0.4'
p4092
g16
S'0.45'
p4093
g16
S'0.05'
p4094
tp4095
I1566
s(S'0.25'
p4096
g16
S'0.2'
p4097
g16
S'0.2'
p4098
tp4099
I1079
s(S'0.35'
p4100
g16
S'0.2'
p4101
g16
S'-0.15'
p4102
tp4103
I1403
s(S'0.35'
p4104
g16
S'0.0'
p4105
g16
S'-0.05'
p4106
tp4107
I1357
s(S'0.05'
p4108
g16
S'0.55'
p4109
g16
S'0.35'
p4110
tp4111
I351
s(S'0.2'
p4112
g16
S'0.15'
p4113
g16
S'-0.15'
p4114
tp4115
I852
s(S'0.35'
p4116
g16
S'-0.05'
p4117
g16
S'0.0'
p4118
tp4119
I1351
s(S'0.15'
p4120
g16
S'0.55'
p4121
g16
S'0.25'
p4122
tp4123
I773
s(S'0.2'
p4124
g16
S'0.3'
p4125
g16
S'0.45'
p4126
tp4127
I915
s(S'0.25'
p4128
g16
S'0.35'
p4129
g16
S'-0.15'
p4130
tp4131
I1122
s(S'0.1'
p4132
g16
S'0.25'
p4133
g16
S'-0.05'
p4134
tp4135
I448
s(S'0.1'
p4136
g16
S'0.3'
p4137
g16
S'0.45'
p4138
tp4139
I476
s(S'0.1'
p4140
g16
S'0.55'
p4141
g16
S'-0.25'
p4142
tp4143
I543
s(S'0.35'
p4144
g16
S'0.2'
p4145
g16
S'-0.0'
p4146
tp4147
I1406
s(S'-0.0'
p4148
g16
S'0.25'
p4149
g16
S'0.35'
p4150
tp4151
I67
s(S'0.25'
p4152
g16
S'0.15'
p4153
g16
S'-0.1'
p4154
tp4155
I1056
s(S'0.1'
p4156
g16
S'0.45'
p4157
g16
S'0.25'
p4158
tp4159
I523
s(S'-0.0'
p4160
g16
S'0.3'
p4161
g16
S'0.15'
p4162
tp4163
I81
s(S'0.2'
p4164
g16
S'0.55'
p4165
g16
S'-0.05'
p4166
tp4167
I979
s(S'0.1'
p4168
g16
S'0.4'
p4169
g16
S'0.25'
p4170
tp4171
I506
s(S'0.2'
p4172
g16
S'0.3'
p4173
g16
S'0.1'
p4174
tp4175
I908
s(S'0.2'
p4176
g16
S'0.25'
p4177
g16
S'0.25'
p4178
tp4179
I894
s(S'0.05'
p4180
g16
S'0.45'
p4181
g16
S'-0.1'
p4182
tp4183
I312
s(S'0.25'
p4184
g16
S'0.55'
p4185
g16
S'0.2'
p4186
tp4187
I1181
s(S'0.25'
p4188
g16
S'0.2'
p4189
g16
S'0.25'
p4190
tp4191
I1080
s(S'0.3'
p4192
g16
S'0.1'
p4193
g16
S'0.3'
p4194
tp4195
I1234
s(S'0.4'
p4196
g16
S'0.3'
p4197
g16
S'0.25'
p4198
tp4199
I1544
s(S'0.3'
p4200
g16
S'0.1'
p4201
g16
S'0.25'
p4202
tp4203
I1233
s(S'0.2'
p4204
g16
S'0.3'
p4205
g16
S'0.3'
p4206
tp4207
I912
s(S'0.1'
p4208
g16
S'0.2'
p4209
g16
S'0.35'
p4210
tp4211
I438
s(S'0.35'
p4212
g16
S'0.5'
p4213
g16
S'0.1'
p4214
tp4215
I1475
s(S'0.05'
p4216
g16
S'0.6'
p4217
g16
S'0.0'
p4218
tp4219
I356
s(S'0.25'
p4220
g16
S'-0.05'
p4221
g16
S'-0.2'
p4222
tp4223
I997
s(S'0.2'
p4224
g16
S'0.5'
p4225
g16
S'0.1'
p4226
tp4227
I970
s(S'-0.0'
p4228
g16
S'0.6'
p4229
g16
S'0.1'
p4230
tp4231
I174
s(S'0.2'
p4232
g16
S'0.3'
p4233
g16
S'-0.15'
p4234
tp4235
I903
s(S'0.2'
p4236
g16
S'0.4'
p4237
g16
S'0.05'
p4238
tp4239
I940
s(S'0.2'
p4240
g16
S'0.35'
p4241
g16
S'-0.1'
p4242
tp4243
I921
s(S'0.1'
p4244
g16
S'0.5'
p4245
g16
S'0.0'
p4246
tp4247
I534
s(S'0.3'
p4248
g16
S'0.3'
p4249
g16
S'0.25'
p4250
tp4251
I1292
s(S'0.15'
p4252
g16
S'0.3'
p4253
g16
S'-0.1'
p4254
tp4255
I689
s(S'0.1'
p4256
g16
S'-0.05'
p4257
g16
S'0.05'
p4258
tp4259
I363
s(S'0.25'
p4260
g16
S'0.15'
p4261
g16
S'0.2'
p4262
tp4263
I1062
s(S'0.1'
p4264
g16
S'0.25'
p4265
g16
S'-0.25'
p4266
tp4267
I444
s(S'0.1'
p4268
g16
S'0.4'
p4269
g16
S'0.35'
p4270
tp4271
I508
s(S'0.45'
p4272
g16
S'0.15'
p4273
g16
S'-0.0'
p4274
tp4275
I1577
s(S'0.25'
p4276
g16
S'0.6'
p4277
g16
S'0.15'
p4278
tp4279
I1188
s(S'0.3'
p4280
g16
S'0.15'
p4281
g16
S'0.35'
p4282
tp4283
I1249
s(S'0.3'
p4284
g16
S'0.45'
p4285
g16
S'-0.15'
p4286
tp4287
I1323
s(S'0.2'
p4288
g16
S'-0.1'
p4289
g16
S'-0.05'
p4290
tp4291
I785
s(S'0.4'
p4292
g16
S'0.45'
p4293
g16
S'0.15'
p4294
tp4295
I1568
s(S'0.1'
p4296
g16
S'0.5'
p4297
g16
S'0.3'
p4298
tp4299
I540
s(S'0.25'
p4300
g16
S'0.3'
p4301
g16
S'0.2'
p4302
tp4303
I1113
s(S'0.25'
p4304
g16
S'-0.0'
p4305
g16
S'-0.05'
p4306
tp4307
I1012
s(S'0.25'
p4308
g16
S'0.45'
p4309
g16
S'-0.15'
p4310
tp4311
I1151
s(S'0.45'
p4312
g16
S'0.2'
p4313
g16
S'0.05'
p4314
tp4315
I1585
s(S'0.4'
p4316
g16
S'0.35'
p4317
g16
S'-0.15'
p4318
tp4319
I1546
s(S'-0.0'
p4320
g16
S'0.4'
p4321
g16
S'0.05'
p4322
tp4323
I114
s(S'0.35'
p4324
g16
S'-0.0'
p4325
g16
S'0.25'
p4326
tp4327
I1363
s(S'0.05'
p4328
g16
S'0.15'
p4329
g16
S'0.15'
p4330
tp4331
I211
s(S'0.3'
p4332
g16
S'0.45'
p4333
g16
S'0.25'
p4334
tp4335
I1331
s(S'-0.0'
p4336
g16
S'0.1'
p4337
g16
S'0.1'
p4338
tp4339
I13
s(S'0.05'
p4340
g16
S'0.55'
p4341
g16
S'0.05'
p4342
tp4343
I345
s(S'0.15'
p4344
g16
S'0.45'
p4345
g16
S'-0.1'
p4346
tp4347
I739
s(S'0.05'
p4348
g16
S'0.25'
p4349
g16
S'0.3'
p4350
tp4351
I250
s(S'0.1'
p4352
g16
S'-0.0'
p4353
g16
S'0.1'
p4354
tp4355
I367
s(S'0.25'
p4356
g16
S'0.55'
p4357
g16
S'0.05'
p4358
tp4359
I1178
s(S'0.3'
p4360
g16
S'0.05'
p4361
g16
S'0.15'
p4362
tp4363
I1217
s(S'0.25'
p4364
g16
S'0.6'
p4365
g16
S'-0.1'
p4366
tp4367
I1183
s(S'-0.0'
p4368
g16
S'0.6'
p4369
g16
S'0.2'
p4370
tp4371
I176
s(S'0.15'
p4372
g16
S'-0.0'
p4373
g16
S'0.05'
p4374
tp4375
I589
s(S'0.25'
p4376
g16
S'0.5'
p4377
g16
S'0.15'
p4378
tp4379
I1170
s(S'0.25'
p4380
g16
S'0.5'
p4381
g16
S'-0.05'
p4382
tp4383
I1166
s(S'0.2'
p4384
g16
S'0.1'
p4385
g16
S'-0.15'
p4386
tp4387
I835
s(S'0.2'
p4388
g16
S'0.4'
p4389
g16
S'0.3'
p4390
tp4391
I945
s(S'0.05'
p4392
g16
S'0.4'
p4393
g16
S'0.25'
p4394
tp4395
I302
s(S'0.25'
p4396
g16
S'0.3'
p4397
g16
S'0.0'
p4398
tp4399
I1109
s(S'0.05'
p4400
g16
S'0.5'
p4401
g16
S'0.1'
p4402
tp4403
I332
s(S'0.3'
p4404
g16
S'-0.0'
p4405
g16
S'-0.2'
p4406
tp4407
I1198
s(S'0.05'
p4408
g16
S'0.3'
p4409
g16
S'-0.05'
p4410
tp4411
I261
s(S'-0.0'
p4412
g16
S'0.35'
p4413
g16
S'-0.3'
p4414
tp4415
I90
s(S'0.15'
p4416
g16
S'0.1'
p4417
g16
S'-0.2'
p4418
tp4419
I617
s(S'0.15'
p4420
g16
S'-0.0'
p4421
g16
S'-0.05'
p4422
tp4423
I587
s(S'0.25'
p4424
g16
S'-0.05'
p4425
g16
S'0.2'
p4426
tp4427
I1005
s(S'0.3'
p4428
g16
S'0.4'
p4429
g16
S'-0.25'
p4430
tp4431
I1309
s(S'0.1'
p4432
g16
S'0.2'
p4433
g16
S'-0.35'
p4434
tp4435
I424
s(S'0.1'
p4436
g16
S'0.4'
p4437
g16
S'-0.0'
p4438
tp4439
I501
s(S'0.15'
p4440
g16
S'0.45'
p4441
g16
S'0.15'
p4442
tp4443
I744
s(S'0.4'
p4444
g16
S'0.25'
p4445
g16
S'0.3'
p4446
tp4447
I1534
s(S'0.25'
p4448
g16
S'0.35'
p4449
g16
S'0.05'
p4450
tp4451
I1126
s(S'0.0'
p4452
g16
S'0.4'
p4453
g16
S'-0.35'
p4454
tp4455
I106
s(S'0.15'
p4456
g16
S'0.15'
p4457
g16
S'-0.1'
p4458
tp4459
I636
s(S'0.05'
p4460
g16
S'0.1'
p4461
g16
S'-0.25'
p4462
tp4463
I189
s(S'0.35'
p4464
g16
S'0.3'
p4465
g16
S'-0.1'
p4466
tp4467
I1430
s(S'0.15'
p4468
g16
S'-0.05'
p4469
g16
S'0.2'
p4470
tp4471
I579
s(S'0.3'
p4472
g16
S'0.3'
p4473
g16
S'0.3'
p4474
tp4475
I1293
s(S'0.15'
p4476
g16
S'-0.0'
p4477
g16
S'-0.25'
p4478
tp4479
I583
s(S'0.45'
p4480
g16
S'0.1'
p4481
g16
S'-0.0'
p4482
tp4483
I1571
s(S'0.3'
p4484
g16
S'0.55'
p4485
g16
S'0.1'
p4486
tp4487
I1348
s(S'0.1'
p4488
g16
S'0.45'
p4489
g16
S'0.05'
p4490
tp4491
I519
s(S'0.1'
p4492
g16
S'0.2'
p4493
g16
S'-0.0'
p4494
tp4495
I431
s(S'0.1'
p4496
g16
S'0.35'
p4497
g16
S'-0.15'
p4498
tp4499
I481
s(S'0.25'
p4500
g16
S'0.55'
p4501
g16
S'0.1'
p4502
tp4503
I1179
s(S'0.2'
p4504
g16
S'-0.0'
p4505
g16
S'0.3'
p4506
tp4507
I813
s(S'0.45'
p4508
g16
S'0.2'
p4509
g16
S'-0.05'
p4510
tp4511
I1583
s(S'0.3'
p4512
g16
S'0.15'
p4513
g16
S'-0.2'
p4514
tp4515
I1238
s(S'0.25'
p4516
g16
S'0.25'
p4517
g16
S'-0.1'
p4518
tp4519
I1090
s(S'0.05'
p4520
g16
S'0.15'
p4521
g16
S'-0.3'
p4522
tp4523
I202
s(S'0.35'
p4524
g16
S'0.0'
p4525
g16
S'0.15'
p4526
tp4527
I1361
s(S'0.1'
p4528
g16
S'0.3'
p4529
g16
S'0.35'
p4530
tp4531
I474
s(S'0.2'
p4532
g16
S'0.2'
p4533
g16
S'-0.2'
p4534
tp4535
I868
s(S'0.35'
p4536
g16
S'0.3'
p4537
g16
S'0.1'
p4538
tp4539
I1434
s(S'0.3'
p4540
g16
S'0.35'
p4541
g16
S'-0.05'
p4542
tp4543
I1300
s(S'0.15'
p4544
g16
S'0.05'
p4545
g16
S'0.25'
p4546
tp4547
I609
s(S'-0.0'
p4548
g16
S'0.35'
p4549
g16
S'0.45'
p4550
tp4551
I105
s(S'0.25'
p4552
g16
S'0.35'
p4553
g16
S'0.3'
p4554
tp4555
I1131
s(S'0.35'
p4556
g16
S'0.45'
p4557
g16
S'-0.1'
p4558
tp4559
I1463
s(S'0.15'
p4560
g16
S'0.45'
p4561
g16
S'0.1'
p4562
tp4563
I743
s(S'0.15'
p4564
g16
S'0.4'
p4565
g16
S'-0.35'
p4566
tp4567
I718
s(S'0.05'
p4568
g16
S'0.45'
p4569
g16
S'-0.15'
p4570
tp4571
I311
s(S'0.15'
p4572
g16
S'0.6'
p4573
g16
S'-0.05'
p4574
tp4575
I777
s(S'0.3'
p4576
g16
S'0.15'
p4577
g16
S'0.2'
p4578
tp4579
I1246
s(S'0.4'
p4580
g16
S'0.15'
p4581
g16
S'0.25'
p4582
tp4583
I1511
s(S'-0.0'
p4584
g16
S'0.35'
p4585
g16
S'0.1'
p4586
tp4587
I98
s(S'0.3'
p4588
g16
S'-0.0'
p4589
g16
S'0.2'
p4590
tp4591
I1206
s(S'0.05'
p4592
g16
S'0.1'
p4593
g16
S'0.3'
p4594
tp4595
I197
s(S'0.4'
p4596
g16
S'0.25'
p4597
g16
S'-0.0'
p4598
tp4599
I1528
s(S'0.3'
p4600
g16
S'0.3'
p4601
g16
S'-0.25'
p4602
tp4603
I1282
s(S'0.3'
p4604
g16
S'-0.0'
p4605
g16
S'0.15'
p4606
tp4607
I1205
s(S'0.15'
p4608
g16
S'0.2'
p4609
g16
S'-0.3'
p4610
tp4611
I650
s(S'0.1'
p4612
g16
S'0.25'
p4613
g16
S'0.4'
p4614
tp4615
I457
s(S'0.4'
p4616
g16
S'0.25'
p4617
g16
S'0.15'
p4618
tp4619
I1531
s(S'0.05'
p4620
g16
S'0.35'
p4621
g16
S'-0.1'
p4622
tp4623
I278
s(S'0.15'
p4624
g16
S'0.3'
p4625
g16
S'0.2'
p4626
tp4627
I695
s(S'0.1'
p4628
g16
S'0.2'
p4629
g16
S'0.15'
p4630
tp4631
I434
s(S'0.05'
p4632
g16
S'0.1'
p4633
g16
S'0.45'
p4634
tp4635
I200
s(S'0.1'
p4636
g16
S'0.35'
p4637
g16
S'0.15'
p4638
tp4639
I487
s(S'-0.0'
p4640
g16
S'0.4'
p4641
g16
S'-0.15'
p4642
tp4643
I110
s(S'0.35'
p4644
g16
S'0.4'
p4645
g16
S'-0.15'
p4646
tp4647
I1452
s(S'0.3'
p4648
g16
S'0.2'
p4649
g16
S'-0.15'
p4650
tp4651
I1254
s(S'-0.0'
p4652
g16
S'0.5'
p4653
g16
S'0.05'
p4654
tp4655
I147
s(S'0.2'
p4656
g16
S'0.45'
p4657
g16
S'0.3'
p4658
tp4659
I960
s(S'0.1'
p4660
g16
S'0.45'
p4661
g16
S'-0.35'
p4662
tp4663
I511
s(S'-0.0'
p4664
g16
S'0.05'
p4665
g16
S'0.2'
p4666
tp4667
I4
s(S'-0.0'
p4668
g16
S'0.45'
p4669
g16
S'0.2'
p4670
tp4671
I134
s(S'0.3'
p4672
g16
S'0.45'
p4673
g16
S'-0.1'
p4674
tp4675
I1324
s(S'0.25'
p4676
g16
S'0.5'
p4677
g16
S'0.25'
p4678
tp4679
I1172
s(S'0.3'
p4680
g16
S'0.25'
p4681
g16
S'0.1'
p4682
tp4683
I1274
s(S'0.25'
p4684
g16
S'0.15'
p4685
g16
S'0.45'
p4686
tp4687
I1067
s(S'0.15'
p4688
g16
S'0.55'
p4689
g16
S'-0.2'
p4690
tp4691
I764
s(S'0.2'
p4692
g16
S'0.2'
p4693
g16
S'0.35'
p4694
tp4695
I879
s(S'0.2'
p4696
g16
S'0.05'
p4697
g16
S'0.15'
p4698
tp4699
I825
s(S'0.25'
p4700
g16
S'0.4'
p4701
g16
S'-0.15'
p4702
tp4703
I1137
s(S'0.3'
p4704
g16
S'0.2'
p4705
g16
S'-0.0'
p4706
tp4707
I1257
s(S'0.2'
p4708
g16
S'0.55'
p4709
g16
S'0.1'
p4710
tp4711
I982
s(S'0.25'
p4712
g16
S'0.4'
p4713
g16
S'0.4'
p4714
tp4715
I1148
s(S'0.05'
p4716
g16
S'0.4'
p4717
g16
S'-0.3'
p4718
tp4719
I291
s(S'0.15'
p4720
g16
S'0.25'
p4721
g16
S'-0.15'
p4722
tp4723
I671
s(S'0.0'
p4724
g16
S'0.25'
p4725
g16
S'0.15'
p4726
tp4727
I63
s(S'0.35'
p4728
g16
S'0.25'
p4729
g16
S'0.35'
p4730
tp4731
I1426
s(S'0.4'
p4732
g16
S'0.2'
p4733
g16
S'0.0'
p4734
tp4735
I1517
s(S'0.1'
p4736
g16
S'0.1'
p4737
g16
S'-0.0'
p4738
tp4739
I396
s(S'0.35'
p4740
g16
S'-0.0'
p4741
g16
S'0.1'
p4742
tp4743
I1360
s(S'-0.0'
p4744
g16
S'0.15'
p4745
g16
S'-0.05'
p4746
tp4747
I27
s(S'0.35'
p4748
g16
S'0.15'
p4749
g16
S'0.15'
p4750
tp4751
I1396
s(S'0.2'
p4752
g16
S'-0.1'
p4753
g16
S'0.15'
p4754
tp4755
I789
s(S'0.2'
p4756
g16
S'-0.05'
p4757
g16
S'-0.2'
p4758
tp4759
I791
s(S'0.15'
p4760
g16
S'0.2'
p4761
g16
S'-0.25'
p4762
tp4763
I651
s(S'0.3'
p4764
g16
S'0.3'
p4765
g16
S'0.35'
p4766
tp4767
I1294
s(S'0.4'
p4768
g16
S'0.1'
p4769
g16
S'0.15'
p4770
tp4771
I1499
s(S'0.3'
p4772
g16
S'0.15'
p4773
g16
S'0.15'
p4774
tp4775
I1245
s(S'0.05'
p4776
g16
S'0.3'
p4777
g16
S'0.2'
p4778
tp4779
I266
s(S'0.15'
p4780
g16
S'0.25'
p4781
g16
S'0.4'
p4782
tp4783
I682
s(S'0.05'
p4784
g16
S'0.35'
p4785
g16
S'-0.25'
p4786
tp4787
I275
s(S'0.3'
p4788
g16
S'0.25'
p4789
g16
S'0.15'
p4790
tp4791
I1275
s(S'0.15'
p4792
g16
S'0.0'
p4793
g16
S'-0.2'
p4794
tp4795
I584
s(S'0.2'
p4796
g16
S'0.1'
p4797
g16
S'0.3'
p4798
tp4799
I844
s(S'0.15'
p4800
g16
S'0.5'
p4801
g16
S'-0.15'
p4802
tp4803
I753
s(S'0.2'
p4804
g16
S'0.1'
p4805
g16
S'-0.2'
p4806
tp4807
I834
s(S'0.3'
p4808
g16
S'0.45'
p4809
g16
S'0.2'
p4810
tp4811
I1330
s(S'0.45'
p4812
g16
S'0.25'
p4813
g16
S'-0.1'
p4814
tp4815
I1589
s(S'0.15'
p4816
g16
S'-0.0'
p4817
g16
S'0.25'
p4818
tp4819
I593
s(S'0.1'
p4820
g16
S'0.6'
p4821
g16
S'0.1'
p4822
tp4823
I562
s(S'0.05'
p4824
g16
S'0.25'
p4825
g16
S'0.25'
p4826
tp4827
I249
s(S'0.2'
p4828
g16
S'0.25'
p4829
g16
S'-0.1'
p4830
tp4831
I887
s(S'0.1'
p4832
g16
S'0.3'
p4833
g16
S'-0.05'
p4834
tp4835
I466
s(S'0.2'
p4836
g16
S'0.3'
p4837
g16
S'-0.3'
p4838
tp4839
I900
s(S'0.2'
p4840
g16
S'0.5'
p4841
g16
S'0.35'
p4842
tp4843
I975
s(S'0.25'
p4844
g16
S'0.45'
p4845
g16
S'-0.05'
p4846
tp4847
I1153
s(S'0.2'
p4848
g16
S'0.5'
p4849
g16
S'0.05'
p4850
tp4851
I969
s(S'0.1'
p4852
g16
S'0.1'
p4853
g16
S'0.1'
p4854
tp4855
I398
s(S'0.4'
p4856
g16
S'-0.0'
p4857
g16
S'0.1'
p4858
tp4859
I1482
s(S'0.0'
p4860
g16
S'0.35'
p4861
g16
S'-0.35'
p4862
tp4863
I89
s(S'-0.0'
p4864
g16
S'0.25'
p4865
g16
S'-0.15'
p4866
tp4867
I58
s(S'0.2'
p4868
g16
S'0.3'
p4869
g16
S'0.0'
p4870
tp4871
I906
s(S'0.45'
p4872
g16
S'0.2'
p4873
g16
S'0.2'
p4874
tp4875
I1588
s(S'-0.0'
p4876
g16
S'0.55'
p4877
g16
S'-0.15'
p4878
tp4879
I157
s(S'0.1'
p4880
g16
S'0.1'
p4881
g16
S'0.45'
p4882
tp4883
I405
s(S'0.35'
p4884
g16
S'0.1'
p4885
g16
S'-0.25'
p4886
tp4887
I1375
s(S'0.35'
p4888
g16
S'0.5'
p4889
g16
S'0.2'
p4890
tp4891
I1477
s(S'0.15'
p4892
g16
S'0.2'
p4893
g16
S'0.05'
p4894
tp4895
I657
s(S'0.15'
p4896
g16
S'0.5'
p4897
g16
S'-0.1'
p4898
tp4899
I754
s(S'0.15'
p4900
g16
S'0.55'
p4901
g16
S'0.0'
p4902
tp4903
I768
s(S'0.3'
p4904
g16
S'0.4'
p4905
g16
S'0.35'
p4906
tp4907
I1321
s(S'0.4'
p4908
g16
S'0.1'
p4909
g16
S'0.25'
p4910
tp4911
I1501
s(S'0.1'
p4912
g16
S'0.45'
p4913
g16
S'0.1'
p4914
tp4915
I520
s(S'0.05'
p4916
g16
S'0.2'
p4917
g16
S'-0.15'
p4918
tp4919
I223
s(S'0.1'
p4920
g16
S'0.15'
p4921
g16
S'0.05'
p4922
tp4923
I414
s(S'0.15'
p4924
g16
S'0.1'
p4925
g16
S'0.15'
p4926
tp4927
I624
s(S'0.25'
p4928
g16
S'0.6'
p4929
g16
S'0.1'
p4930
tp4931
I1187
s(S'0.35'
p4932
g16
S'-0.05'
p4933
g16
S'0.05'
p4934
tp4935
I1352
s(S'0.15'
p4936
g16
S'0.3'
p4937
g16
S'-0.2'
p4938
tp4939
I687
s(S'0.4'
p4940
g16
S'0.05'
p4941
g16
S'0.05'
p4942
tp4943
I1487
s(S'0.05'
p4944
g16
S'0.6'
p4945
g16
S'-0.15'
p4946
tp4947
I353
s(S'0.1'
p4948
g16
S'0.1'
p4949
g16
S'0.35'
p4950
tp4951
I403
s(S'0.25'
p4952
g16
S'-0.0'
p4953
g16
S'-0.1'
p4954
tp4955
I1011
s(S'-0.0'
p4956
g16
S'0.55'
p4957
g16
S'0.05'
p4958
tp4959
I161
s(S'0.25'
p4960
g16
S'0.15'
p4961
g16
S'0.1'
p4962
tp4963
I1060
s(S'0.3'
p4964
g16
S'0.3'
p4965
g16
S'0.05'
p4966
tp4967
I1288
s(S'0.2'
p4968
g16
S'0.3'
p4969
g16
S'-0.2'
p4970
tp4971
I902
s(S'0.05'
p4972
g16
S'0.3'
p4973
g16
S'-0.2'
p4974
tp4975
I258
s(S'0.3'
p4976
g16
S'0.35'
p4977
g16
S'-0.2'
p4978
tp4979
I1297
s(S'0.0'
p4980
g16
S'0.25'
p4981
g16
S'0.25'
p4982
tp4983
I65
s(S'0.3'
p4984
g16
S'0.35'
p4985
g16
S'0.1'
p4986
tp4987
I1303
s(S'0.15'
p4988
g16
S'0.1'
p4989
g16
S'0.2'
p4990
tp4991
I625
s(S'0.2'
p4992
g16
S'0.5'
p4993
g16
S'0.15'
p4994
tp4995
I971
s(S'0.3'
p4996
g16
S'0.2'
p4997
g16
S'0.35'
p4998
tp4999
I1264
s(S'0.15'
p5000
g16
S'0.45'
p5001
g16
S'-0.05'
p5002
tp5003
I740
s(S'0.0'
p5004
g16
S'0.25'
p5005
g16
S'-0.4'
p5006
tp5007
I53
s(S'-0.0'
p5008
g16
S'0.35'
p5009
g16
S'-0.1'
p5010
tp5011
I94
s(S'0.1'
p5012
g16
S'0.5'
p5013
g16
S'-0.3'
p5014
tp5015
I528
s(S'0.2'
p5016
g16
S'0.05'
p5017
g16
S'0.25'
p5018
tp5019
I827
s(S'-0.0'
p5020
g16
S'0.3'
p5021
g16
S'-0.0'
p5022
tp5023
I78
s(S'0.35'
p5024
g16
S'0.35'
p5025
g16
S'0.15'
p5026
tp5027
I1447
s(S'0.1'
p5028
g16
S'0.6'
p5029
g16
S'-0.1'
p5030
tp5031
I558
s(S'0.3'
p5032
g16
S'0.2'
p5033
g16
S'-0.05'
p5034
tp5035
I1256
s(S'0.2'
p5036
g16
S'0.3'
p5037
g16
S'0.15'
p5038
tp5039
I909
s(S'0.15'
p5040
g16
S'0.3'
p5041
g16
S'-0.05'
p5042
tp5043
I690
s(S'0.15'
p5044
g16
S'-0.05'
p5045
g16
S'-0.2'
p5046
tp5047
I571
s(S'0.0'
p5048
g16
S'0.6'
p5049
g16
S'-0.2'
p5050
tp5051
I168
s(S'0.35'
p5052
g16
S'0.1'
p5053
g16
S'-0.0'
p5054
tp5055
I1380
s(S'0.05'
p5056
g16
S'0.25'
p5057
g16
S'-0.1'
p5058
tp5059
I242
s(S'0.4'
p5060
g16
S'0.25'
p5061
g16
S'-0.05'
p5062
tp5063
I1527
s(S'0.1'
p5064
g16
S'-0.0'
p5065
g16
S'0.4'
p5066
tp5067
I373
s(S'0.15'
p5068
g16
S'0.2'
p5069
g16
S'0.15'
p5070
tp5071
I659
s(S'-0.0'
p5072
g16
S'0.45'
p5073
g16
S'-0.05'
p5074
tp5075
I129
s(S'0.1'
p5076
g16
S'0.2'
p5077
g16
S'-0.05'
p5078
tp5079
I430
s(S'0.25'
p5080
g16
S'0.45'
p5081
g16
S'0.25'
p5082
tp5083
I1159
s(S'0.25'
p5084
g16
S'0.4'
p5085
g16
S'0.35'
p5086
tp5087
I1147
s(S'0.3'
p5088
g16
S'0.4'
p5089
g16
S'0.2'
p5090
tp5091
I1318
s(S'0.15'
p5092
g16
S'-0.05'
p5093
g16
S'-0.15'
p5094
tp5095
I572
s(S'0.05'
p5096
g16
S'0.15'
p5097
g16
S'0.3'
p5098
tp5099
I214
s(S'0.2'
p5100
g16
S'0.15'
p5101
g16
S'0.4'
p5102
tp5103
I863
s(S'0.0'
p5104
g16
S'0.2'
p5105
g16
S'0.25'
p5106
tp5107
I48
s(S'0.05'
p5108
g16
S'0.35'
p5109
g16
S'-0.05'
p5110
tp5111
I279
s(S'0.25'
p5112
g16
S'0.3'
p5113
g16
S'0.35'
p5114
tp5115
I1116
s(S'0.2'
p5116
g16
S'0.45'
p5117
g16
S'-0.05'
p5118
tp5119
I953
s(S'0.2'
p5120
g16
S'-0.1'
p5121
g16
S'-0.1'
p5122
tp5123
I784
s(S'0.1'
p5124
g16
S'0.15'
p5125
g16
S'-0.1'
p5126
tp5127
I411
s(S'-0.0'
p5128
g16
S'0.5'
p5129
g16
S'-0.05'
p5130
tp5131
I145
s(S'0.15'
p5132
g16
S'0.5'
p5133
g16
S'0.1'
p5134
tp5135
I758
s(S'0.4'
p5136
g16
S'0.15'
p5137
g16
S'0.3'
p5138
tp5139
I1512
s(S'-0.0'
p5140
g16
S'0.15'
p5141
g16
S'0.2'
p5142
tp5143
I30
s(S'0.1'
p5144
g16
S'0.25'
p5145
g16
S'-0.3'
p5146
tp5147
I443
s(S'0.15'
p5148
g16
S'0.2'
p5149
g16
S'0.4'
p5150
tp5151
I664
s(S'0.15'
p5152
g16
S'0.4'
p5153
g16
S'0.3'
p5154
tp5155
I731
s(S'0.15'
p5156
g16
S'0.3'
p5157
g16
S'-0.15'
p5158
tp5159
I688
s(S'0.25'
p5160
g16
S'0.25'
p5161
g16
S'-0.15'
p5162
tp5163
I1089
s(S'0.0'
p5164
g16
S'0.3'
p5165
g16
S'0.2'
p5166
tp5167
I82
s(S'0.2'
p5168
g16
S'0.05'
p5169
g16
S'-0.05'
p5170
tp5171
I821
s(S'0.3'
p5172
g16
S'0.55'
p5173
g16
S'0.2'
p5174
tp5175
I1350
s(S'0.1'
p5176
g16
S'0.45'
p5177
g16
S'-0.1'
p5178
tp5179
I516
s(S'0.4'
p5180
g16
S'0.4'
p5181
g16
S'0.2'
p5182
tp5183
I1562
s(S'0.25'
p5184
g16
S'0.1'
p5185
g16
S'0.0'
p5186
tp5187
I1042
s(S'0.05'
p5188
g16
S'0.55'
p5189
g16
S'-0.05'
p5190
tp5191
I343
s(S'0.1'
p5192
g16
S'0.2'
p5193
g16
S'-0.3'
p5194
tp5195
I425
s(S'0.2'
p5196
g16
S'0.5'
p5197
g16
S'-0.1'
p5198
tp5199
I966
s(S'0.05'
p5200
g16
S'0.05'
p5201
g16
S'0.2'
p5202
tp5203
I182
s(S'0.2'
p5204
g16
S'0.25'
p5205
g16
S'0.4'
p5206
tp5207
I897
s(S'0.0'
p5208
g16
S'0.3'
p5209
g16
S'0.05'
p5210
tp5211
I79
s(S'0.4'
p5212
g16
S'0.35'
p5213
g16
S'-0.1'
p5214
tp5215
I1547
s(S'0.05'
p5216
g16
S'0.45'
p5217
g16
S'0.3'
p5218
tp5219
I320
s(S'0.05'
p5220
g16
S'0.2'
p5221
g16
S'-0.2'
p5222
tp5223
I222
s(S'0.1'
p5224
g16
S'0.35'
p5225
g16
S'-0.3'
p5226
tp5227
I478
s(S'0.1'
p5228
g16
S'-0.0'
p5229
g16
S'0.05'
p5230
tp5231
I366
s(S'0.05'
p5232
g16
S'0.3'
p5233
g16
S'-0.15'
p5234
tp5235
I259
s(S'0.35'
p5236
g16
S'0.4'
p5237
g16
S'-0.0'
p5238
tp5239
I1455
s(S'0.15'
p5240
g16
S'0.1'
p5241
g16
S'0.25'
p5242
tp5243
I626
s(S'0.3'
p5244
g16
S'0.3'
p5245
g16
S'-0.3'
p5246
tp5247
I1281
s(S'0.25'
p5248
g16
S'0.35'
p5249
g16
S'-0.25'
p5250
tp5251
I1120
s(S'0.3'
p5252
g16
S'0.0'
p5253
g16
S'-0.1'
p5254
tp5255
I1200
s(S'0.0'
p5256
g16
S'0.15'
p5257
g16
S'0.25'
p5258
tp5259
I31
s(S'-0.0'
p5260
g16
S'0.15'
p5261
g16
S'-0.35'
p5262
tp5263
I21
s(S'-0.0'
p5264
g16
S'0.6'
p5265
g16
S'-0.05'
p5266
tp5267
I171
s(S'0.15'
p5268
g16
S'0.4'
p5269
g16
S'-0.3'
p5270
tp5271
I719
s(S'0.15'
p5272
g16
S'0.3'
p5273
g16
S'0.45'
p5274
tp5275
I700
s(S'0.1'
p5276
g16
S'0.25'
p5277
g16
S'0.3'
p5278
tp5279
I455
s(S'0.25'
p5280
g16
S'0.1'
p5281
g16
S'0.35'
p5282
tp5283
I1049
s(S'0.35'
p5284
g16
S'0.4'
p5285
g16
S'0.1'
p5286
tp5287
I1457
s(S'0.3'
p5288
g16
S'0.25'
p5289
g16
S'0.05'
p5290
tp5291
I1273
s(S'0.15'
p5292
g16
S'0.05'
p5293
g16
S'-0.1'
p5294
tp5295
I602
s(S'0.2'
p5296
g16
S'0.5'
p5297
g16
S'0.25'
p5298
tp5299
I973
s(S'0.2'
p5300
g16
S'0.3'
p5301
g16
S'0.4'
p5302
tp5303
I914
s(S'0.25'
p5304
g16
S'0.0'
p5305
g16
S'0.3'
p5306
tp5307
I1019
s(S'0.3'
p5308
g16
S'0.45'
p5309
g16
S'0.05'
p5310
tp5311
I1327
s(S'0.35'
p5312
g16
S'0.15'
p5313
g16
S'-0.2'
p5314
tp5315
I1389
s(S'0.2'
p5316
g16
S'0.35'
p5317
g16
S'-0.35'
p5318
tp5319
I916
s(S'0.3'
p5320
g16
S'0.35'
p5321
g16
S'0.25'
p5322
tp5323
I1306
s(S'0.3'
p5324
g16
S'0.25'
p5325
g16
S'0.4'
p5326
tp5327
I1280
s(S'0.1'
p5328
g16
S'0.15'
p5329
g16
S'0.25'
p5330
tp5331
I418
s(S'0.1'
p5332
g16
S'0.35'
p5333
g16
S'0.25'
p5334
tp5335
I489
s(S'0.25'
p5336
g16
S'0.5'
p5337
g16
S'0.05'
p5338
tp5339
I1168
s(S'0.0'
p5340
g16
S'0.15'
p5341
g16
S'-0.2'
p5342
tp5343
I24
s(S'0.15'
p5344
g16
S'0.6'
p5345
g16
S'0.05'
p5346
tp5347
I779
s(S'0.05'
p5348
g16
S'0.45'
p5349
g16
S'0.45'
p5350
tp5351
I323
s(S'0.05'
p5352
g16
S'0.2'
p5353
g16
S'-0.35'
p5354
tp5355
I219
s(S'-0.0'
p5356
g16
S'0.25'
p5357
g16
S'0.3'
p5358
tp5359
I66
s(S'0.4'
p5360
g16
S'0.4'
p5361
g16
S'-0.15'
p5362
tp5363
I1555
s(S'-0.0'
p5364
g16
S'0.6'
p5365
g16
S'-0.15'
p5366
tp5367
I169
s(S'0.4'
p5368
g16
S'0.2'
p5369
g16
S'0.2'
p5370
tp5371
I1521
s(S'0.15'
p5372
g16
S'0.05'
p5373
g16
S'0.0'
p5374
tp5375
I604
s(S'0.3'
p5376
g16
S'0.3'
p5377
g16
S'0.15'
p5378
tp5379
I1290
s(S'0.25'
p5380
g16
S'0.3'
p5381
g16
S'-0.1'
p5382
tp5383
I1107
s(S'0.2'
p5384
g16
S'0.15'
p5385
g16
S'-0.1'
p5386
tp5387
I853
s(S'0.05'
p5388
g16
S'0.5'
p5389
g16
S'-0.3'
p5390
tp5391
I324
s(S'0.35'
p5392
g16
S'0.05'
p5393
g16
S'0.05'
p5394
tp5395
I1369
s(S'0.05'
p5396
g16
S'0.3'
p5397
g16
S'0.1'
p5398
tp5399
I264
s(S'0.1'
p5400
g16
S'0.0'
p5401
g16
S'-0.0'
p5402
tp5403
I365
s(S'0.4'
p5404
g16
S'0.3'
p5405
g16
S'-0.1'
p5406
tp5407
I1537
s(S'0.35'
p5408
g16
S'0.25'
p5409
g16
S'0.05'
p5410
tp5411
I1420
s(S'-0.0'
p5412
g16
S'0.2'
p5413
g16
S'0.4'
p5414
tp5415
I51
s(S'0.25'
p5416
g16
S'0.3'
p5417
g16
S'-0.25'
p5418
tp5419
I1104
s(S'0.05'
p5420
g16
S'0.1'
p5421
g16
S'-0.2'
p5422
tp5423
I190
s(S'0.2'
p5424
g16
S'-0.0'
p5425
g16
S'-0.0'
p5426
tp5427
I807
s(S'0.35'
p5428
g16
S'0.45'
p5429
g16
S'0.05'
p5430
tp5431
I1466
s(S'0.1'
p5432
g16
S'0.2'
p5433
g16
S'0.3'
p5434
tp5435
I437
s(S'0.3'
p5436
g16
S'0.45'
p5437
g16
S'0.1'
p5438
tp5439
I1328
s(S'0.05'
p5440
g16
S'0.4'
p5441
g16
S'-0.15'
p5442
tp5443
I294
s(S'0.05'
p5444
g16
S'0.5'
p5445
g16
S'0.15'
p5446
tp5447
I333
s(S'0.3'
p5448
g16
S'0.25'
p5449
g16
S'-0.25'
p5450
tp5451
I1267
s(S'0.2'
p5452
g16
S'0.25'
p5453
g16
S'-0.2'
p5454
tp5455
I885
s(S'0.2'
p5456
g16
S'0.6'
p5457
g16
S'-0.05'
p5458
tp5459
I989
s(S'0.35'
p5460
g16
S'0.5'
p5461
g16
S'-0.1'
p5462
tp5463
I1471
s(S'0.3'
p5464
g16
S'0.25'
p5465
g16
S'0.35'
p5466
tp5467
I1279
s(S'0.15'
p5468
g16
S'0.35'
p5469
g16
S'0.35'
p5470
tp5471
I715
s(S'0.2'
p5472
g16
S'0.1'
p5473
g16
S'-0.25'
p5474
tp5475
I833
s(S'0.05'
p5476
g16
S'0.35'
p5477
g16
S'-0.2'
p5478
tp5479
I276
s(S'-0.0'
p5480
g16
S'0.1'
p5481
g16
S'0.4'
p5482
tp5483
I19
s(S'0.15'
p5484
g16
S'0.15'
p5485
g16
S'0.3'
p5486
tp5487
I644
s(S'0.05'
p5488
g16
S'0.25'
p5489
g16
S'0.4'
p5490
tp5491
I252
s(S'0.05'
p5492
g16
S'0.2'
p5493
g16
S'0.4'
p5494
tp5495
I234
s(S'0.3'
p5496
g16
S'0.1'
p5497
g16
S'-0.3'
p5498
tp5499
I1222
s(S'0.4'
p5500
g16
S'0.45'
p5501
g16
S'-0.05'
p5502
tp5503
I1564
s(S'0.2'
p5504
g16
S'0.25'
p5505
g16
S'-0.25'
p5506
tp5507
I884
s(S'-0.0'
p5508
g16
S'0.5'
p5509
g16
S'-0.2'
p5510
tp5511
I142
s(S'0.1'
p5512
g16
S'0.55'
p5513
g16
S'-0.0'
p5514
tp5515
I548
s(S'0.1'
p5516
g16
S'0.3'
p5517
g16
S'-0.35'
p5518
tp5519
I460
s(S'0.1'
p5520
g16
S'0.4'
p5521
g16
S'0.45'
p5522
tp5523
I510
s(S'0.15'
p5524
g16
S'0.55'
p5525
g16
S'0.3'
p5526
tp5527
I774
s(S'0.2'
p5528
g16
S'-0.05'
p5529
g16
S'0.25'
p5530
tp5531
I800
s(S'0.2'
p5532
g16
S'0.05'
p5533
g16
S'-0.0'
p5534
tp5535
I822
s(S'0.05'
p5536
g16
S'0.5'
p5537
g16
S'0.4'
p5538
tp5539
I338
s(S'0.25'
p5540
g16
S'0.15'
p5541
g16
S'0.15'
p5542
tp5543
I1061
s(S'-0.0'
p5544
g16
S'0.25'
p5545
g16
S'0.45'
p5546
tp5547
I69
s(S'0.1'
p5548
g16
S'0.05'
p5549
g16
S'0.25'
p5550
tp5551
I384
s(S'0.25'
p5552
g16
S'0.55'
p5553
g16
S'0.15'
p5554
tp5555
I1180
s(S'0.4'
p5556
g16
S'0.3'
p5557
g16
S'0.05'
p5558
tp5559
I1540
s(S'0.1'
p5560
g16
S'0.45'
p5561
g16
S'-0.3'
p5562
tp5563
I512
s(S'0.2'
p5564
g16
S'-0.1'
p5565
g16
S'0.1'
p5566
tp5567
I788
s(S'0.0'
p5568
g16
S'0.3'
p5569
g16
S'-0.25'
p5570
tp5571
I73
s(S'0.35'
p5572
g16
S'0.1'
p5573
g16
S'-0.05'
p5574
tp5575
I1379
s(S'0.05'
p5576
g16
S'0.55'
p5577
g16
S'0.15'
p5578
tp5579
I347
s(S'0.15'
p5580
g16
S'0.3'
p5581
g16
S'0.25'
p5582
tp5583
I696
s(S'0.2'
p5584
g16
S'0.25'
p5585
g16
S'0.1'
p5586
tp5587
I891
s(S'0.3'
p5588
g16
S'0.35'
p5589
g16
S'0.35'
p5590
tp5591
I1308
s(S'0.05'
p5592
g16
S'0.3'
p5593
g16
S'0.35'
p5594
tp5595
I269
s(S'0.4'
p5596
g16
S'0.1'
p5597
g16
S'-0.0'
p5598
tp5599
I1496
s(S'0.2'
p5600
g16
S'0.45'
p5601
g16
S'-0.3'
p5602
tp5603
I948
s(S'0.25'
p5604
g16
S'0.25'
p5605
g16
S'-0.35'
p5606
tp5607
I1085
s(S'0.35'
p5608
g16
S'0.1'
p5609
g16
S'0.35'
p5610
tp5611
I1387
s(S'0.0'
p5612
g16
S'0.45'
p5613
g16
S'-0.3'
p5614
tp5615
I124
s(S'0.25'
p5616
g16
S'0.15'
p5617
g16
S'0.4'
p5618
tp5619
I1066
s(S'0.0'
p5620
g16
S'0.45'
p5621
g16
S'-0.35'
p5622
tp5623
I123
s(S'0.05'
p5624
g16
S'0.3'
p5625
g16
S'-0.1'
p5626
tp5627
I260
s(S'0.4'
p5628
g16
S'0.35'
p5629
g16
S'0.1'
p5630
tp5631
I1551
s(S'0.2'
p5632
g16
S'0.15'
p5633
g16
S'-0.0'
p5634
tp5635
I855
s(S'0.2'
p5636
g16
S'0.05'
p5637
g16
S'0.4'
p5638
tp5639
I830
s(S'0.15'
p5640
g16
S'0.6'
p5641
g16
S'0.25'
p5642
tp5643
I783
s(S'0.2'
p5644
g16
S'0.45'
p5645
g16
S'-0.2'
p5646
tp5647
I950
s(S'0.15'
p5648
g16
S'-0.0'
p5649
g16
S'-0.1'
p5650
tp5651
I586
s(S'0.45'
p5652
g16
S'0.2'
p5653
g16
S'0.1'
p5654
tp5655
I1586
s(S'0.25'
p5656
g16
S'0.6'
p5657
g16
S'0.05'
p5658
tp5659
I1186
s(S'0.05'
p5660
g16
S'0.55'
p5661
g16
S'0.0'
p5662
tp5663
I344
s(S'0.25'
p5664
g16
S'-0.0'
p5665
g16
S'-0.25'
p5666
tp5667
I1008
s(S'0.2'
p5668
g16
S'-0.05'
p5669
g16
S'0.2'
p5670
tp5671
I799
s(S'0.2'
p5672
g16
S'-0.0'
p5673
g16
S'0.4'
p5674
tp5675
I815
s(S'0.15'
p5676
g16
S'0.4'
p5677
g16
S'-0.05'
p5678
tp5679
I724
s(S'0.35'
p5680
g16
S'0.2'
p5681
g16
S'0.2'
p5682
tp5683
I1410
s(S'-0.0'
p5684
g16
S'0.3'
p5685
g16
S'-0.1'
p5686
tp5687
I76
s(S'0.35'
p5688
g16
S'0.05'
p5689
g16
S'0.1'
p5690
tp5691
I1370
s(S'0.2'
p5692
g16
S'0.55'
p5693
g16
S'-0.2'
p5694
tp5695
I976
s(S'0.25'
p5696
g16
S'0.1'
p5697
g16
S'-0.25'
p5698
tp5699
I1037
s(S'0.2'
p5700
g16
S'0.25'
p5701
g16
S'-0.15'
p5702
tp5703
I886
s(S'0.05'
p5704
g16
S'0.25'
p5705
g16
S'-0.2'
p5706
tp5707
I240
s(S'0.15'
p5708
g16
S'0.15'
p5709
g16
S'-0.3'
p5710
tp5711
I632
s(S'0.15'
p5712
g16
S'0.45'
p5713
g16
S'0.4'
p5714
tp5715
I749
s(S'0.2'
p5716
g16
S'0.35'
p5717
g16
S'0.2'
p5718
tp5719
I927
s(S'0.4'
p5720
g16
S'-0.0'
p5721
g16
S'0.05'
p5722
tp5723
I1481
s(S'0.15'
p5724
g16
S'0.35'
p5725
g16
S'-0.3'
p5726
tp5727
I702
s(S'0.3'
p5728
g16
S'0.25'
p5729
g16
S'-0.1'
p5730
tp5731
I1270
s(S'-0.0'
p5732
g16
S'0.1'
p5733
g16
S'0.15'
p5734
tp5735
I14
s(S'0.15'
p5736
g16
S'0.35'
p5737
g16
S'-0.05'
p5738
tp5739
I707
s(S'0.2'
p5740
g16
S'0.4'
p5741
g16
S'0.2'
p5742
tp5743
I943
s(S'0.1'
p5744
g16
S'0.45'
p5745
g16
S'0.35'
p5746
tp5747
I525
s(S'0.25'
p5748
g16
S'0.3'
p5749
g16
S'0.1'
p5750
tp5751
I1111
s(S'0.35'
p5752
g16
S'0.25'
p5753
g16
S'0.0'
p5754
tp5755
I1419
s(S'-0.0'
p5756
g16
S'0.3'
p5757
g16
S'0.1'
p5758
tp5759
I80
s(S'0.05'
p5760
g16
S'0.4'
p5761
g16
S'-0.25'
p5762
tp5763
I292
s(S'-0.0'
p5764
g16
S'0.35'
p5765
g16
S'0.4'
p5766
tp5767
I104
s(S'0.35'
p5768
g16
S'0.35'
p5769
g16
S'0.3'
p5770
tp5771
I1450
s(S'0.1'
p5772
g16
S'0.35'
p5773
g16
S'0.3'
p5774
tp5775
I490
s(S'0.15'
p5776
g16
S'-0.0'
p5777
g16
S'0.2'
p5778
tp5779
I592
s(S'0.25'
p5780
g16
S'-0.05'
p5781
g16
S'-0.05'
p5782
tp5783
I1000
s(S'-0.0'
p5784
g16
S'0.15'
p5785
g16
S'0.1'
p5786
tp5787
I28
s(S'0.2'
p5788
g16
S'0.15'
p5789
g16
S'-0.25'
p5790
tp5791
I850
s(S'0.05'
p5792
g16
S'0.1'
p5793
g16
S'-0.15'
p5794
tp5795
I191
s(S'0.15'
p5796
g16
S'0.5'
p5797
g16
S'-0.3'
p5798
tp5799
I750
s(S'0.4'
p5800
g16
S'0.25'
p5801
g16
S'0.2'
p5802
tp5803
I1532
s(S'0.25'
p5804
g16
S'0.25'
p5805
g16
S'0.0'
p5806
tp5807
I1092
s(S'0.25'
p5808
g16
S'-0.0'
p5809
g16
S'-0.15'
p5810
tp5811
I1010
s(S'0.25'
p5812
g16
S'0.55'
p5813
g16
S'0.25'
p5814
tp5815
I1182
s(S'0.35'
p5816
g16
S'0.3'
p5817
g16
S'-0.05'
p5818
tp5819
I1431
s(S'-0.0'
p5820
g16
S'0.25'
p5821
g16
S'-0.3'
p5822
tp5823
I55
s(S'0.15'
p5824
g16
S'0.05'
p5825
g16
S'-0.25'
p5826
tp5827
I599
s(S'0.05'
p5828
g16
S'0.15'
p5829
g16
S'0.35'
p5830
tp5831
I215
s(S'0.05'
p5832
g16
S'0.05'
p5833
g16
S'0.45'
p5834
tp5835
I187
s(S'0.25'
p5836
g16
S'0.1'
p5837
g16
S'0.15'
p5838
tp5839
I1045
s(S'0.2'
p5840
g16
S'0.1'
p5841
g16
S'0.25'
p5842
tp5843
I843
s(S'0.45'
p5844
g16
S'0.35'
p5845
g16
S'-0.0'
p5846
tp5847
I1604
s(S'0.15'
p5848
g16
S'-0.05'
p5849
g16
S'0.05'
p5850
tp5851
I576
s(S'0.4'
p5852
g16
S'0.3'
p5853
g16
S'0.1'
p5854
tp5855
I1541
s(S'0.2'
p5856
g16
S'0.2'
p5857
g16
S'0.1'
p5858
tp5859
I874
s(S'0.2'
p5860
g16
S'0.45'
p5861
g16
S'-0.25'
p5862
tp5863
I949
s(S'0.1'
p5864
g16
S'0.15'
p5865
g16
S'0.1'
p5866
tp5867
I415
s(S'0.1'
p5868
g16
S'0.55'
p5869
g16
S'0.15'
p5870
tp5871
I551
s(S'0.25'
p5872
g16
S'0.45'
p5873
g16
S'0.35'
p5874
tp5875
I1161
s(S'0.25'
p5876
g16
S'-0.05'
p5877
g16
S'-0.15'
p5878
tp5879
I998
s(S'0.25'
p5880
g16
S'0.55'
p5881
g16
S'-0.05'
p5882
tp5883
I1176
s(S'0.35'
p5884
g16
S'0.05'
p5885
g16
S'0.3'
p5886
tp5887
I1374
s(S'0.15'
p5888
g16
S'0.6'
p5889
g16
S'0.2'
p5890
tp5891
I782
s(S'0.1'
p5892
g16
S'0.05'
p5893
g16
S'0.1'
p5894
tp5895
I381
s(S'0.2'
p5896
g16
S'0.4'
p5897
g16
S'0.0'
p5898
tp5899
I939
s(S'0.1'
p5900
g16
S'0.05'
p5901
g16
S'-0.2'
p5902
tp5903
I375
s(S'0.1'
p5904
g16
S'0.35'
p5905
g16
S'0.45'
p5906
tp5907
I493
s(S'0.2'
p5908
g16
S'0.4'
p5909
g16
S'-0.3'
p5910
tp5911
I933
s(S'-0.0'
p5912
g16
S'0.45'
p5913
g16
S'-0.25'
p5914
tp5915
I125
s(S'0.1'
p5916
g16
S'0.35'
p5917
g16
S'-0.35'
p5918
tp5919
I477
s(S'0.2'
p5920
g16
S'0.45'
p5921
g16
S'-0.15'
p5922
tp5923
I951
s(S'-0.0'
p5924
g16
S'0.35'
p5925
g16
S'0.25'
p5926
tp5927
I101
s(S'0.25'
p5928
g16
S'0.6'
p5929
g16
S'-0.05'
p5930
tp5931
I1184
s(S'0.25'
p5932
g16
S'0.15'
p5933
g16
S'-0.25'
p5934
tp5935
I1053
s(S'0.1'
p5936
g16
S'0.4'
p5937
g16
S'0.2'
p5938
tp5939
I505
s(S'0.35'
p5940
g16
S'0.2'
p5941
g16
S'-0.2'
p5942
tp5943
I1402
s(S'-0.0'
p5944
g16
S'0.4'
p5945
g16
S'0.0'
p5946
tp5947
I113
s(S'0.25'
p5948
g16
S'0.15'
p5949
g16
S'-0.3'
p5950
tp5951
I1052
s(S'0.4'
p5952
g16
S'0.05'
p5953
g16
S'-0.15'
p5954
tp5955
I1483
s(S'0.05'
p5956
g16
S'0.4'
p5957
g16
S'0.35'
p5958
tp5959
I304
s(S'0.45'
p5960
g16
S'0.1'
p5961
g16
S'-0.05'
p5962
tp5963
I1570
s(S'0.2'
p5964
g16
S'0.35'
p5965
g16
S'0.35'
p5966
tp5967
I930
s(S'0.2'
p5968
g16
S'0.25'
p5969
g16
S'-0.3'
p5970
tp5971
I883
s(S'-0.0'
p5972
g16
S'0.55'
p5973
g16
S'0.0'
p5974
tp5975
I160
s(S'0.2'
p5976
g16
S'0.6'
p5977
g16
S'0.0'
p5978
tp5979
I990
s(S'0.3'
p5980
g16
S'0.4'
p5981
g16
S'0.25'
p5982
tp5983
I1319
s(S'0.1'
p5984
g16
S'0.4'
p5985
g16
S'0.15'
p5986
tp5987
I504
s(S'0.05'
p5988
g16
S'0.45'
p5989
g16
S'-0.3'
p5990
tp5991
I308
s(S'0.1'
p5992
g16
S'0.55'
p5993
g16
S'0.1'
p5994
tp5995
I550
s(S'0.25'
p5996
g16
S'0.4'
p5997
g16
S'-0.05'
p5998
tp5999
I1139
s(S'0.25'
p6000
g16
S'0.3'
p6001
g16
S'-0.35'
p6002
tp6003
I1102
s(S'0.05'
p6004
g16
S'0.1'
p6005
g16
S'0.25'
p6006
tp6007
I196
s(S'0.3'
p6008
g16
S'0.35'
p6009
g16
S'0.15'
p6010
tp6011
I1304
s(S'0.25'
p6012
g16
S'0.1'
p6013
g16
S'0.25'
p6014
tp6015
I1047
s(S'-0.0'
p6016
g16
S'0.2'
p6017
g16
S'-0.1'
p6018
tp6019
I42
s(S'0.25'
p6020
g16
S'0.5'
p6021
g16
S'-0.1'
p6022
tp6023
I1165
s(S'0.05'
p6024
g16
S'0.6'
p6025
g16
S'0.2'
p6026
tp6027
I360
s(S'0.45'
p6028
g16
S'0.25'
p6029
g16
S'0.05'
p6030
tp6031
I1592
s(S'0.15'
p6032
g16
S'0.1'
p6033
g16
S'-0.35'
p6034
tp6035
I614
s(S'0.1'
p6036
g16
S'0.45'
p6037
g16
S'0.4'
p6038
tp6039
I526
s(S'0.2'
p6040
g16
S'0.35'
p6041
g16
S'-0.05'
p6042
tp6043
I922
s(S'0.1'
p6044
g16
S'0.45'
p6045
g16
S'-0.15'
p6046
tp6047
I515
s(S'0.2'
p6048
g16
S'0.35'
p6049
g16
S'-0.3'
p6050
tp6051
I917
s(S'0.15'
p6052
g16
S'0.05'
p6053
g16
S'0.3'
p6054
tp6055
I610
s(S'0.1'
p6056
g16
S'0.3'
p6057
g16
S'0.3'
p6058
tp6059
I473
s(S'0.35'
p6060
g16
S'0.25'
p6061
g16
S'-0.15'
p6062
tp6063
I1416
s(S'0.2'
p6064
g16
S'0.3'
p6065
g16
S'-0.1'
p6066
tp6067
I904
s(S'0.4'
p6068
g16
S'0.45'
p6069
g16
S'-0.0'
p6070
tp6071
I1565
s(S'0.25'
p6072
g16
S'0.05'
p6073
g16
S'0.3'
p6074
tp6075
I1033
s(S'0.05'
p6076
g16
S'0.3'
p6077
g16
S'0.4'
p6078
tp6079
I270
s(S'0.25'
p6080
g16
S'0.2'
p6081
g16
S'0.05'
p6082
tp6083
I1076
s(S'0.4'
p6084
g16
S'0.25'
p6085
g16
S'-0.2'
p6086
tp6087
I1524
s(S'0.2'
p6088
g16
S'0.15'
p6089
g16
S'0.25'
p6090
tp6091
I860
s(S'0.1'
p6092
g16
S'0.1'
p6093
g16
S'-0.05'
p6094
tp6095
I395
s(S'0.0'
p6096
g16
S'0.15'
p6097
g16
S'0.35'
p6098
tp6099
I33
s(S'-0.0'
p6100
g16
S'0.45'
p6101
g16
S'-0.15'
p6102
tp6103
I127
s(S'0.25'
p6104
g16
S'0.35'
p6105
g16
S'-0.1'
p6106
tp6107
I1123
s(S'0.25'
p6108
g16
S'0.55'
p6109
g16
S'-0.1'
p6110
tp6111
I1175
s(S'0.2'
p6112
g16
S'0.5'
p6113
g16
S'0.0'
p6114
tp6115
I968
s(S'0.3'
p6116
g16
S'0.05'
p6117
g16
S'0.0'
p6118
tp6119
I1214
s(S'0.15'
p6120
g16
S'0.15'
p6121
g16
S'0.05'
p6122
tp6123
I639
s(S'0.2'
p6124
g16
S'0.5'
p6125
g16
S'-0.05'
p6126
tp6127
I967
s(S'0.05'
p6128
g16
S'0.55'
p6129
g16
S'-0.1'
p6130
tp6131
I342
s(S'0.1'
p6132
g16
S'-0.05'
p6133
g16
S'0.35'
p6134
tp6135
I364
s(S'0.35'
p6136
g16
S'0.35'
p6137
g16
S'-0.15'
p6138
tp6139
I1441
s(S'0.3'
p6140
g16
S'0.4'
p6141
g16
S'-0.15'
p6142
tp6143
I1311
s(S'0.25'
p6144
g16
S'0.45'
p6145
g16
S'0.2'
p6146
tp6147
I1158
s(S'-0.0'
p6148
g16
S'0.1'
p6149
g16
S'0.3'
p6150
tp6151
I17
s(S'0.1'
p6152
g16
S'0.35'
p6153
g16
S'-0.05'
p6154
tp6155
I483
s(S'0.05'
p6156
g16
S'0.25'
p6157
g16
S'0.1'
p6158
tp6159
I246
s(S'0.1'
p6160
g16
S'-0.0'
p6161
g16
S'0.3'
p6162
tp6163
I371
s(S'-0.0'
p6164
g16
S'0.4'
p6165
g16
S'0.3'
p6166
tp6167
I119
s(S'0.05'
p6168
g16
S'0.2'
p6169
g16
S'0.1'
p6170
tp6171
I228
s(S'0.4'
p6172
g16
S'0.05'
p6173
g16
S'0.25'
p6174
tp6175
I1491
s(S'0.3'
p6176
g16
S'0.5'
p6177
g16
S'-0.2'
p6178
tp6179
I1333
s(S'-0.0'
p6180
g16
S'0.5'
p6181
g16
S'-0.1'
p6182
tp6183
I144
s(S'-0.0'
p6184
g16
S'-0.0'
p6185
g16
S'0.3'
p6186
tp6187
I0
s(S'0.35'
p6188
g16
S'0.55'
p6189
g16
S'0.05'
p6190
tp6191
I1478
s(S'0.45'
p6192
g16
S'0.3'
p6193
g16
S'-0.05'
p6194
tp6195
I1597
s(S'0.15'
p6196
g16
S'0.35'
p6197
g16
S'-0.25'
p6198
tp6199
I703
s(S'0.25'
p6200
g16
S'-0.1'
p6201
g16
S'0.1'
p6202
tp6203
I996
s(S'0.2'
p6204
g16
S'-0.0'
p6205
g16
S'-0.25'
p6206
tp6207
I802
s(S'-0.0'
p6208
g16
S'0.1'
p6209
g16
S'0.45'
p6210
tp6211
I20
s(S'0.3'
p6212
g16
S'-0.0'
p6213
g16
S'-0.0'
p6214
tp6215
I1202
s(S'0.15'
p6216
g16
S'0.2'
p6217
g16
S'0.2'
p6218
tp6219
I660
s(S'0.1'
p6220
g16
S'0.05'
p6221
g16
S'-0.15'
p6222
tp6223
I376
s(S'0.25'
p6224
g16
S'0.3'
p6225
g16
S'0.25'
p6226
tp6227
I1114
s(S'0.25'
p6228
g16
S'-0.05'
p6229
g16
S'0.0'
p6230
tp6231
I1001
s(S'0.1'
p6232
g16
S'0.55'
p6233
g16
S'-0.1'
p6234
tp6235
I546
s(S'0.1'
p6236
g16
S'0.4'
p6237
g16
S'-0.2'
p6238
tp6239
I497
s(S'0.15'
p6240
g16
S'0.35'
p6241
g16
S'0.3'
p6242
tp6243
I714
s(S'0.25'
p6244
g16
S'-0.05'
p6245
g16
S'0.25'
p6246
tp6247
I1006
s(S'0.45'
p6248
g16
S'0.3'
p6249
g16
S'-0.1'
p6250
tp6251
I1596
s(S'0.2'
p6252
g16
S'0.4'
p6253
g16
S'0.25'
p6254
tp6255
I944
s(S'0.15'
p6256
g16
S'-0.05'
p6257
g16
S'0.0'
p6258
tp6259
I575
s(S'0.45'
p6260
g16
S'0.3'
p6261
g16
S'-0.0'
p6262
tp6263
I1598
s(S'0.2'
p6264
g16
S'0.05'
p6265
g16
S'0.1'
p6266
tp6267
I824
s(S'0.15'
p6268
g16
S'0.1'
p6269
g16
S'-0.05'
p6270
tp6271
I620
s(S'0.15'
p6272
g16
S'0.1'
p6273
g16
S'0.4'
p6274
tp6275
I629
s(S'0.25'
p6276
g16
S'0.15'
p6277
g16
S'0.25'
p6278
tp6279
I1063
s(S'0.2'
p6280
g16
S'-0.05'
p6281
g16
S'0.15'
p6282
tp6283
I798
s(S'0.2'
p6284
g16
S'0.5'
p6285
g16
S'-0.15'
p6286
tp6287
I965
s(S'0.05'
p6288
g16
S'0.55'
p6289
g16
S'0.3'
p6290
tp6291
I350
s(S'0.2'
p6292
g16
S'-0.0'
p6293
g16
S'0.1'
p6294
tp6295
I809
s(S'0.05'
p6296
g16
S'0.25'
p6297
g16
S'0.05'
p6298
tp6299
I245
s(S'0.05'
p6300
g16
S'0.4'
p6301
g16
S'0.1'
p6302
tp6303
I299
s(S'0.1'
p6304
g16
S'0.4'
p6305
g16
S'-0.05'
p6306
tp6307
I500
s(S'0.3'
p6308
g16
S'0.15'
p6309
g16
S'-0.0'
p6310
tp6311
I1242
s(S'0.25'
p6312
g16
S'0.25'
p6313
g16
S'-0.3'
p6314
tp6315
I1086
s(S'0.05'
p6316
g16
S'0.15'
p6317
g16
S'-0.1'
p6318
tp6319
I206
s(S'0.35'
p6320
g16
S'0.2'
p6321
g16
S'0.1'
p6322
tp6323
I1408
s(S'0.25'
p6324
g16
S'0.35'
p6325
g16
S'0.2'
p6326
tp6327
I1129
s(S'0.2'
p6328
g16
S'0.3'
p6329
g16
S'0.25'
p6330
tp6331
I911
s(S'0.25'
p6332
g16
S'0.3'
p6333
g16
S'-0.05'
p6334
tp6335
I1108
s(S'0.35'
p6336
g16
S'0.3'
p6337
g16
S'0.3'
p6338
tp6339
I1438
s(S'0.0'
p6340
g16
S'0.2'
p6341
g16
S'-0.3'
p6342
tp6343
I38
s(S'0.25'
p6344
g16
S'0.35'
p6345
g16
S'0.1'
p6346
tp6347
I1127
s(S'0.15'
p6348
g16
S'0.15'
p6349
g16
S'-0.0'
p6350
tp6351
I638
s(S'0.2'
p6352
g16
S'0.35'
p6353
g16
S'0.1'
p6354
tp6355
I925
s(S'0.3'
p6356
g16
S'0.5'
p6357
g16
S'-0.1'
p6358
tp6359
I1335
s(S'0.35'
p6360
g16
S'0.35'
p6361
g16
S'0.25'
p6362
tp6363
I1449
s(S'-0.0'
p6364
g16
S'0.15'
p6365
g16
S'0.45'
p6366
tp6367
I35
s(S'0.25'
p6368
g16
S'0.2'
p6369
g16
S'-0.3'
p6370
tp6371
I1069
s(S'0.2'
p6372
g16
S'0.15'
p6373
g16
S'0.2'
p6374
tp6375
I859
s(S'0.35'
p6376
g16
S'0.25'
p6377
g16
S'0.3'
p6378
tp6379
I1425
s(S'0.45'
p6380
g16
S'0.1'
p6381
g16
S'0.15'
p6382
tp6383
I1574
s(S'0.1'
p6384
g16
S'0.6'
p6385
g16
S'0.15'
p6386
tp6387
I563
s(S'0.2'
p6388
g16
S'0.45'
p6389
g16
S'0.0'
p6390
tp6391
I954
s(S'0.35'
p6392
g16
S'0.35'
p6393
g16
S'0.0'
p6394
tp6395
I1444
s(S'0.0'
p6396
g16
S'0.2'
p6397
g16
S'-0.25'
p6398
tp6399
I39
s(S'0.05'
p6400
g16
S'0.1'
p6401
g16
S'0.1'
p6402
tp6403
I193
s(S'0.1'
p6404
g16
S'0.35'
p6405
g16
S'0.4'
p6406
tp6407
I492
s(S'0.05'
p6408
g16
S'0.3'
p6409
g16
S'-0.0'
p6410
tp6411
I262
s(S'0.15'
p6412
g16
S'-0.0'
p6413
g16
S'0.1'
p6414
tp6415
I590
s(S'0.15'
p6416
g16
S'0.35'
p6417
g16
S'-0.35'
p6418
tp6419
I701
s(S'0.15'
p6420
g16
S'0.2'
p6421
g16
S'-0.1'
p6422
tp6423
I654
s(S'0.25'
p6424
g16
S'-0.0'
p6425
g16
S'0.1'
p6426
tp6427
I1015
s(S'0.45'
p6428
g16
S'0.05'
p6429
g16
S'0.05'
p6430
tp6431
I1569
s(S'-0.0'
p6432
g16
S'0.25'
p6433
g16
S'-0.35'
p6434
tp6435
I54
s(S'0.3'
p6436
g16
S'-0.0'
p6437
g16
S'0.05'
p6438
tp6439
I1203
s(S'0.15'
p6440
g16
S'0.3'
p6441
g16
S'0.0'
p6442
tp6443
I691
s(S'-0.0'
p6444
g16
S'0.25'
p6445
g16
S'-0.0'
p6446
tp6447
I61
ssS'r'
p6448
I0
sS'xmax'
p6449
F0.45
sS'xmin'
p6450
F0.0
sS'ymin'
p6451
F-0.55
sS'name'
p6452
S'rlhuboplus_left'
p6453
sb.