ccopy_reg
_reconstructor
p0
(cReachability
ReachabilityMapParams
p1
c__builtin__
object
p2
Ntp3
Rp4
(dp5
S'free_joint_index'
p6
NsS'b'
p7
I1
sS'zmax'
p8
F1.0
sS'ymax'
p9
F1.0
sS'g'
p10
I0
sS'free_joint_val'
p11
F0.0
sS'zmin'
p12
F-1.0
sS'r'
p13
I0
sS'xmax'
p14
F1.0
sS'xmin'
p15
F-1.0
sS'ymin'
p16
F-1.0
sb.